
Atollic_405.elf:     file format elf32-littlearm

Sections:
Idx Name          Size      VMA       LMA       File off  Algn
  0 .isr_vector   00000188  08000000  08000000  00010000  2**0
                  CONTENTS, ALLOC, LOAD, READONLY, DATA
  1 .text         00003884  08000188  08000188  00010188  2**3
                  CONTENTS, ALLOC, LOAD, READONLY, CODE
  2 .rodata       00005208  08003a10  08003a10  00013a10  2**3
                  CONTENTS, ALLOC, LOAD, READONLY, DATA
  3 .init_array   00000004  08008c18  08008c18  00018c18  2**2
                  CONTENTS, ALLOC, LOAD, DATA
  4 .fini_array   00000004  08008c1c  08008c1c  00018c1c  2**2
                  CONTENTS, ALLOC, LOAD, DATA
  5 .data         000000a0  20000000  08008c20  00020000  2**2
                  CONTENTS, ALLOC, LOAD, DATA
  6 .ccmram       00000000  10000000  10000000  000200a0  2**0
                  CONTENTS
  7 .bss          00004054  200000a0  200000a0  000200a0  2**2
                  ALLOC
  8 ._user_heap_stack 00000400  200040f4  200040f4  000200a0  2**0
                  ALLOC
  9 .ARM.attributes 00000030  00000000  00000000  000200a0  2**0
                  CONTENTS, READONLY
 10 .debug_info   0000273f  00000000  00000000  000200d0  2**0
                  CONTENTS, READONLY, DEBUGGING
 11 .debug_abbrev 00000563  00000000  00000000  0002280f  2**0
                  CONTENTS, READONLY, DEBUGGING
 12 .debug_aranges 000000e0  00000000  00000000  00022d78  2**3
                  CONTENTS, READONLY, DEBUGGING
 13 .debug_ranges 000000b8  00000000  00000000  00022e58  2**3
                  CONTENTS, READONLY, DEBUGGING
 14 .debug_line   0000090b  00000000  00000000  00022f10  2**0
                  CONTENTS, READONLY, DEBUGGING
 15 .debug_str    00001521  00000000  00000000  0002381b  2**0
                  CONTENTS, READONLY, DEBUGGING
 16 .comment      0000007c  00000000  00000000  00024d3c  2**0
                  CONTENTS, READONLY
 17 .debug_frame  000008d0  00000000  00000000  00024db8  2**2
                  CONTENTS, READONLY, DEBUGGING
 18 .stabstr      0000003f  00000000  00000000  00025688  2**0
                  CONTENTS, READONLY, DEBUGGING

Disassembly of section .text:

08000188 <__do_global_dtors_aux>:
 8000188:	b510      	push	{r4, lr}
 800018a:	4c05      	ldr	r4, [pc, #20]	; (80001a0 <__do_global_dtors_aux+0x18>)
 800018c:	7823      	ldrb	r3, [r4, #0]
 800018e:	b933      	cbnz	r3, 800019e <__do_global_dtors_aux+0x16>
 8000190:	4b04      	ldr	r3, [pc, #16]	; (80001a4 <__do_global_dtors_aux+0x1c>)
 8000192:	b113      	cbz	r3, 800019a <__do_global_dtors_aux+0x12>
 8000194:	4804      	ldr	r0, [pc, #16]	; (80001a8 <__do_global_dtors_aux+0x20>)
 8000196:	f3af 8000 	nop.w
 800019a:	2301      	movs	r3, #1
 800019c:	7023      	strb	r3, [r4, #0]
 800019e:	bd10      	pop	{r4, pc}
 80001a0:	200000a0 	.word	0x200000a0
 80001a4:	00000000 	.word	0x00000000
 80001a8:	080039f4 	.word	0x080039f4

080001ac <frame_dummy>:
 80001ac:	b508      	push	{r3, lr}
 80001ae:	4b03      	ldr	r3, [pc, #12]	; (80001bc <frame_dummy+0x10>)
 80001b0:	b11b      	cbz	r3, 80001ba <frame_dummy+0xe>
 80001b2:	4903      	ldr	r1, [pc, #12]	; (80001c0 <frame_dummy+0x14>)
 80001b4:	4803      	ldr	r0, [pc, #12]	; (80001c4 <frame_dummy+0x18>)
 80001b6:	f3af 8000 	nop.w
 80001ba:	bd08      	pop	{r3, pc}
 80001bc:	00000000 	.word	0x00000000
 80001c0:	200000a4 	.word	0x200000a4
 80001c4:	080039f4 	.word	0x080039f4

080001c8 <__aeabi_drsub>:
 80001c8:	f081 4100 	eor.w	r1, r1, #2147483648	; 0x80000000
 80001cc:	e002      	b.n	80001d4 <__adddf3>
 80001ce:	bf00      	nop

080001d0 <__aeabi_dsub>:
 80001d0:	f083 4300 	eor.w	r3, r3, #2147483648	; 0x80000000

080001d4 <__adddf3>:
 80001d4:	b530      	push	{r4, r5, lr}
 80001d6:	ea4f 0441 	mov.w	r4, r1, lsl #1
 80001da:	ea4f 0543 	mov.w	r5, r3, lsl #1
 80001de:	ea94 0f05 	teq	r4, r5
 80001e2:	bf08      	it	eq
 80001e4:	ea90 0f02 	teqeq	r0, r2
 80001e8:	bf1f      	itttt	ne
 80001ea:	ea54 0c00 	orrsne.w	ip, r4, r0
 80001ee:	ea55 0c02 	orrsne.w	ip, r5, r2
 80001f2:	ea7f 5c64 	mvnsne.w	ip, r4, asr #21
 80001f6:	ea7f 5c65 	mvnsne.w	ip, r5, asr #21
 80001fa:	f000 80e2 	beq.w	80003c2 <__adddf3+0x1ee>
 80001fe:	ea4f 5454 	mov.w	r4, r4, lsr #21
 8000202:	ebd4 5555 	rsbs	r5, r4, r5, lsr #21
 8000206:	bfb8      	it	lt
 8000208:	426d      	neglt	r5, r5
 800020a:	dd0c      	ble.n	8000226 <__adddf3+0x52>
 800020c:	442c      	add	r4, r5
 800020e:	ea80 0202 	eor.w	r2, r0, r2
 8000212:	ea81 0303 	eor.w	r3, r1, r3
 8000216:	ea82 0000 	eor.w	r0, r2, r0
 800021a:	ea83 0101 	eor.w	r1, r3, r1
 800021e:	ea80 0202 	eor.w	r2, r0, r2
 8000222:	ea81 0303 	eor.w	r3, r1, r3
 8000226:	2d36      	cmp	r5, #54	; 0x36
 8000228:	bf88      	it	hi
 800022a:	bd30      	pophi	{r4, r5, pc}
 800022c:	f011 4f00 	tst.w	r1, #2147483648	; 0x80000000
 8000230:	ea4f 3101 	mov.w	r1, r1, lsl #12
 8000234:	f44f 1c80 	mov.w	ip, #1048576	; 0x100000
 8000238:	ea4c 3111 	orr.w	r1, ip, r1, lsr #12
 800023c:	d002      	beq.n	8000244 <__adddf3+0x70>
 800023e:	4240      	negs	r0, r0
 8000240:	eb61 0141 	sbc.w	r1, r1, r1, lsl #1
 8000244:	f013 4f00 	tst.w	r3, #2147483648	; 0x80000000
 8000248:	ea4f 3303 	mov.w	r3, r3, lsl #12
 800024c:	ea4c 3313 	orr.w	r3, ip, r3, lsr #12
 8000250:	d002      	beq.n	8000258 <__adddf3+0x84>
 8000252:	4252      	negs	r2, r2
 8000254:	eb63 0343 	sbc.w	r3, r3, r3, lsl #1
 8000258:	ea94 0f05 	teq	r4, r5
 800025c:	f000 80a7 	beq.w	80003ae <__adddf3+0x1da>
 8000260:	f1a4 0401 	sub.w	r4, r4, #1
 8000264:	f1d5 0e20 	rsbs	lr, r5, #32
 8000268:	db0d      	blt.n	8000286 <__adddf3+0xb2>
 800026a:	fa02 fc0e 	lsl.w	ip, r2, lr
 800026e:	fa22 f205 	lsr.w	r2, r2, r5
 8000272:	1880      	adds	r0, r0, r2
 8000274:	f141 0100 	adc.w	r1, r1, #0
 8000278:	fa03 f20e 	lsl.w	r2, r3, lr
 800027c:	1880      	adds	r0, r0, r2
 800027e:	fa43 f305 	asr.w	r3, r3, r5
 8000282:	4159      	adcs	r1, r3
 8000284:	e00e      	b.n	80002a4 <__adddf3+0xd0>
 8000286:	f1a5 0520 	sub.w	r5, r5, #32
 800028a:	f10e 0e20 	add.w	lr, lr, #32
 800028e:	2a01      	cmp	r2, #1
 8000290:	fa03 fc0e 	lsl.w	ip, r3, lr
 8000294:	bf28      	it	cs
 8000296:	f04c 0c02 	orrcs.w	ip, ip, #2
 800029a:	fa43 f305 	asr.w	r3, r3, r5
 800029e:	18c0      	adds	r0, r0, r3
 80002a0:	eb51 71e3 	adcs.w	r1, r1, r3, asr #31
 80002a4:	f001 4500 	and.w	r5, r1, #2147483648	; 0x80000000
 80002a8:	d507      	bpl.n	80002ba <__adddf3+0xe6>
 80002aa:	f04f 0e00 	mov.w	lr, #0
 80002ae:	f1dc 0c00 	rsbs	ip, ip, #0
 80002b2:	eb7e 0000 	sbcs.w	r0, lr, r0
 80002b6:	eb6e 0101 	sbc.w	r1, lr, r1
 80002ba:	f5b1 1f80 	cmp.w	r1, #1048576	; 0x100000
 80002be:	d31b      	bcc.n	80002f8 <__adddf3+0x124>
 80002c0:	f5b1 1f00 	cmp.w	r1, #2097152	; 0x200000
 80002c4:	d30c      	bcc.n	80002e0 <__adddf3+0x10c>
 80002c6:	0849      	lsrs	r1, r1, #1
 80002c8:	ea5f 0030 	movs.w	r0, r0, rrx
 80002cc:	ea4f 0c3c 	mov.w	ip, ip, rrx
 80002d0:	f104 0401 	add.w	r4, r4, #1
 80002d4:	ea4f 5244 	mov.w	r2, r4, lsl #21
 80002d8:	f512 0f80 	cmn.w	r2, #4194304	; 0x400000
 80002dc:	f080 809a 	bcs.w	8000414 <__adddf3+0x240>
 80002e0:	f1bc 4f00 	cmp.w	ip, #2147483648	; 0x80000000
 80002e4:	bf08      	it	eq
 80002e6:	ea5f 0c50 	movseq.w	ip, r0, lsr #1
 80002ea:	f150 0000 	adcs.w	r0, r0, #0
 80002ee:	eb41 5104 	adc.w	r1, r1, r4, lsl #20
 80002f2:	ea41 0105 	orr.w	r1, r1, r5
 80002f6:	bd30      	pop	{r4, r5, pc}
 80002f8:	ea5f 0c4c 	movs.w	ip, ip, lsl #1
 80002fc:	4140      	adcs	r0, r0
 80002fe:	eb41 0101 	adc.w	r1, r1, r1
 8000302:	f411 1f80 	tst.w	r1, #1048576	; 0x100000
 8000306:	f1a4 0401 	sub.w	r4, r4, #1
 800030a:	d1e9      	bne.n	80002e0 <__adddf3+0x10c>
 800030c:	f091 0f00 	teq	r1, #0
 8000310:	bf04      	itt	eq
 8000312:	4601      	moveq	r1, r0
 8000314:	2000      	moveq	r0, #0
 8000316:	fab1 f381 	clz	r3, r1
 800031a:	bf08      	it	eq
 800031c:	3320      	addeq	r3, #32
 800031e:	f1a3 030b 	sub.w	r3, r3, #11
 8000322:	f1b3 0220 	subs.w	r2, r3, #32
 8000326:	da0c      	bge.n	8000342 <__adddf3+0x16e>
 8000328:	320c      	adds	r2, #12
 800032a:	dd08      	ble.n	800033e <__adddf3+0x16a>
 800032c:	f102 0c14 	add.w	ip, r2, #20
 8000330:	f1c2 020c 	rsb	r2, r2, #12
 8000334:	fa01 f00c 	lsl.w	r0, r1, ip
 8000338:	fa21 f102 	lsr.w	r1, r1, r2
 800033c:	e00c      	b.n	8000358 <__adddf3+0x184>
 800033e:	f102 0214 	add.w	r2, r2, #20
 8000342:	bfd8      	it	le
 8000344:	f1c2 0c20 	rsble	ip, r2, #32
 8000348:	fa01 f102 	lsl.w	r1, r1, r2
 800034c:	fa20 fc0c 	lsr.w	ip, r0, ip
 8000350:	bfdc      	itt	le
 8000352:	ea41 010c 	orrle.w	r1, r1, ip
 8000356:	4090      	lslle	r0, r2
 8000358:	1ae4      	subs	r4, r4, r3
 800035a:	bfa2      	ittt	ge
 800035c:	eb01 5104 	addge.w	r1, r1, r4, lsl #20
 8000360:	4329      	orrge	r1, r5
 8000362:	bd30      	popge	{r4, r5, pc}
 8000364:	ea6f 0404 	mvn.w	r4, r4
 8000368:	3c1f      	subs	r4, #31
 800036a:	da1c      	bge.n	80003a6 <__adddf3+0x1d2>
 800036c:	340c      	adds	r4, #12
 800036e:	dc0e      	bgt.n	800038e <__adddf3+0x1ba>
 8000370:	f104 0414 	add.w	r4, r4, #20
 8000374:	f1c4 0220 	rsb	r2, r4, #32
 8000378:	fa20 f004 	lsr.w	r0, r0, r4
 800037c:	fa01 f302 	lsl.w	r3, r1, r2
 8000380:	ea40 0003 	orr.w	r0, r0, r3
 8000384:	fa21 f304 	lsr.w	r3, r1, r4
 8000388:	ea45 0103 	orr.w	r1, r5, r3
 800038c:	bd30      	pop	{r4, r5, pc}
 800038e:	f1c4 040c 	rsb	r4, r4, #12
 8000392:	f1c4 0220 	rsb	r2, r4, #32
 8000396:	fa20 f002 	lsr.w	r0, r0, r2
 800039a:	fa01 f304 	lsl.w	r3, r1, r4
 800039e:	ea40 0003 	orr.w	r0, r0, r3
 80003a2:	4629      	mov	r1, r5
 80003a4:	bd30      	pop	{r4, r5, pc}
 80003a6:	fa21 f004 	lsr.w	r0, r1, r4
 80003aa:	4629      	mov	r1, r5
 80003ac:	bd30      	pop	{r4, r5, pc}
 80003ae:	f094 0f00 	teq	r4, #0
 80003b2:	f483 1380 	eor.w	r3, r3, #1048576	; 0x100000
 80003b6:	bf06      	itte	eq
 80003b8:	f481 1180 	eoreq.w	r1, r1, #1048576	; 0x100000
 80003bc:	3401      	addeq	r4, #1
 80003be:	3d01      	subne	r5, #1
 80003c0:	e74e      	b.n	8000260 <__adddf3+0x8c>
 80003c2:	ea7f 5c64 	mvns.w	ip, r4, asr #21
 80003c6:	bf18      	it	ne
 80003c8:	ea7f 5c65 	mvnsne.w	ip, r5, asr #21
 80003cc:	d029      	beq.n	8000422 <__adddf3+0x24e>
 80003ce:	ea94 0f05 	teq	r4, r5
 80003d2:	bf08      	it	eq
 80003d4:	ea90 0f02 	teqeq	r0, r2
 80003d8:	d005      	beq.n	80003e6 <__adddf3+0x212>
 80003da:	ea54 0c00 	orrs.w	ip, r4, r0
 80003de:	bf04      	itt	eq
 80003e0:	4619      	moveq	r1, r3
 80003e2:	4610      	moveq	r0, r2
 80003e4:	bd30      	pop	{r4, r5, pc}
 80003e6:	ea91 0f03 	teq	r1, r3
 80003ea:	bf1e      	ittt	ne
 80003ec:	2100      	movne	r1, #0
 80003ee:	2000      	movne	r0, #0
 80003f0:	bd30      	popne	{r4, r5, pc}
 80003f2:	ea5f 5c54 	movs.w	ip, r4, lsr #21
 80003f6:	d105      	bne.n	8000404 <__adddf3+0x230>
 80003f8:	0040      	lsls	r0, r0, #1
 80003fa:	4149      	adcs	r1, r1
 80003fc:	bf28      	it	cs
 80003fe:	f041 4100 	orrcs.w	r1, r1, #2147483648	; 0x80000000
 8000402:	bd30      	pop	{r4, r5, pc}
 8000404:	f514 0480 	adds.w	r4, r4, #4194304	; 0x400000
 8000408:	bf3c      	itt	cc
 800040a:	f501 1180 	addcc.w	r1, r1, #1048576	; 0x100000
 800040e:	bd30      	popcc	{r4, r5, pc}
 8000410:	f001 4500 	and.w	r5, r1, #2147483648	; 0x80000000
 8000414:	f045 41fe 	orr.w	r1, r5, #2130706432	; 0x7f000000
 8000418:	f441 0170 	orr.w	r1, r1, #15728640	; 0xf00000
 800041c:	f04f 0000 	mov.w	r0, #0
 8000420:	bd30      	pop	{r4, r5, pc}
 8000422:	ea7f 5c64 	mvns.w	ip, r4, asr #21
 8000426:	bf1a      	itte	ne
 8000428:	4619      	movne	r1, r3
 800042a:	4610      	movne	r0, r2
 800042c:	ea7f 5c65 	mvnseq.w	ip, r5, asr #21
 8000430:	bf1c      	itt	ne
 8000432:	460b      	movne	r3, r1
 8000434:	4602      	movne	r2, r0
 8000436:	ea50 3401 	orrs.w	r4, r0, r1, lsl #12
 800043a:	bf06      	itte	eq
 800043c:	ea52 3503 	orrseq.w	r5, r2, r3, lsl #12
 8000440:	ea91 0f03 	teqeq	r1, r3
 8000444:	f441 2100 	orrne.w	r1, r1, #524288	; 0x80000
 8000448:	bd30      	pop	{r4, r5, pc}
 800044a:	bf00      	nop

0800044c <__aeabi_ui2d>:
 800044c:	f090 0f00 	teq	r0, #0
 8000450:	bf04      	itt	eq
 8000452:	2100      	moveq	r1, #0
 8000454:	4770      	bxeq	lr
 8000456:	b530      	push	{r4, r5, lr}
 8000458:	f44f 6480 	mov.w	r4, #1024	; 0x400
 800045c:	f104 0432 	add.w	r4, r4, #50	; 0x32
 8000460:	f04f 0500 	mov.w	r5, #0
 8000464:	f04f 0100 	mov.w	r1, #0
 8000468:	e750      	b.n	800030c <__adddf3+0x138>
 800046a:	bf00      	nop

0800046c <__aeabi_i2d>:
 800046c:	f090 0f00 	teq	r0, #0
 8000470:	bf04      	itt	eq
 8000472:	2100      	moveq	r1, #0
 8000474:	4770      	bxeq	lr
 8000476:	b530      	push	{r4, r5, lr}
 8000478:	f44f 6480 	mov.w	r4, #1024	; 0x400
 800047c:	f104 0432 	add.w	r4, r4, #50	; 0x32
 8000480:	f010 4500 	ands.w	r5, r0, #2147483648	; 0x80000000
 8000484:	bf48      	it	mi
 8000486:	4240      	negmi	r0, r0
 8000488:	f04f 0100 	mov.w	r1, #0
 800048c:	e73e      	b.n	800030c <__adddf3+0x138>
 800048e:	bf00      	nop

08000490 <__aeabi_f2d>:
 8000490:	0042      	lsls	r2, r0, #1
 8000492:	ea4f 01e2 	mov.w	r1, r2, asr #3
 8000496:	ea4f 0131 	mov.w	r1, r1, rrx
 800049a:	ea4f 7002 	mov.w	r0, r2, lsl #28
 800049e:	bf1f      	itttt	ne
 80004a0:	f012 437f 	andsne.w	r3, r2, #4278190080	; 0xff000000
 80004a4:	f093 4f7f 	teqne	r3, #4278190080	; 0xff000000
 80004a8:	f081 5160 	eorne.w	r1, r1, #939524096	; 0x38000000
 80004ac:	4770      	bxne	lr
 80004ae:	f092 0f00 	teq	r2, #0
 80004b2:	bf14      	ite	ne
 80004b4:	f093 4f7f 	teqne	r3, #4278190080	; 0xff000000
 80004b8:	4770      	bxeq	lr
 80004ba:	b530      	push	{r4, r5, lr}
 80004bc:	f44f 7460 	mov.w	r4, #896	; 0x380
 80004c0:	f001 4500 	and.w	r5, r1, #2147483648	; 0x80000000
 80004c4:	f021 4100 	bic.w	r1, r1, #2147483648	; 0x80000000
 80004c8:	e720      	b.n	800030c <__adddf3+0x138>
 80004ca:	bf00      	nop

080004cc <__aeabi_ul2d>:
 80004cc:	ea50 0201 	orrs.w	r2, r0, r1
 80004d0:	bf08      	it	eq
 80004d2:	4770      	bxeq	lr
 80004d4:	b530      	push	{r4, r5, lr}
 80004d6:	f04f 0500 	mov.w	r5, #0
 80004da:	e00a      	b.n	80004f2 <__aeabi_l2d+0x16>

080004dc <__aeabi_l2d>:
 80004dc:	ea50 0201 	orrs.w	r2, r0, r1
 80004e0:	bf08      	it	eq
 80004e2:	4770      	bxeq	lr
 80004e4:	b530      	push	{r4, r5, lr}
 80004e6:	f011 4500 	ands.w	r5, r1, #2147483648	; 0x80000000
 80004ea:	d502      	bpl.n	80004f2 <__aeabi_l2d+0x16>
 80004ec:	4240      	negs	r0, r0
 80004ee:	eb61 0141 	sbc.w	r1, r1, r1, lsl #1
 80004f2:	f44f 6480 	mov.w	r4, #1024	; 0x400
 80004f6:	f104 0432 	add.w	r4, r4, #50	; 0x32
 80004fa:	ea5f 5c91 	movs.w	ip, r1, lsr #22
 80004fe:	f43f aedc 	beq.w	80002ba <__adddf3+0xe6>
 8000502:	f04f 0203 	mov.w	r2, #3
 8000506:	ea5f 0cdc 	movs.w	ip, ip, lsr #3
 800050a:	bf18      	it	ne
 800050c:	3203      	addne	r2, #3
 800050e:	ea5f 0cdc 	movs.w	ip, ip, lsr #3
 8000512:	bf18      	it	ne
 8000514:	3203      	addne	r2, #3
 8000516:	eb02 02dc 	add.w	r2, r2, ip, lsr #3
 800051a:	f1c2 0320 	rsb	r3, r2, #32
 800051e:	fa00 fc03 	lsl.w	ip, r0, r3
 8000522:	fa20 f002 	lsr.w	r0, r0, r2
 8000526:	fa01 fe03 	lsl.w	lr, r1, r3
 800052a:	ea40 000e 	orr.w	r0, r0, lr
 800052e:	fa21 f102 	lsr.w	r1, r1, r2
 8000532:	4414      	add	r4, r2
 8000534:	e6c1      	b.n	80002ba <__adddf3+0xe6>
 8000536:	bf00      	nop

08000538 <__aeabi_dmul>:
 8000538:	b570      	push	{r4, r5, r6, lr}
 800053a:	f04f 0cff 	mov.w	ip, #255	; 0xff
 800053e:	f44c 6ce0 	orr.w	ip, ip, #1792	; 0x700
 8000542:	ea1c 5411 	ands.w	r4, ip, r1, lsr #20
 8000546:	bf1d      	ittte	ne
 8000548:	ea1c 5513 	andsne.w	r5, ip, r3, lsr #20
 800054c:	ea94 0f0c 	teqne	r4, ip
 8000550:	ea95 0f0c 	teqne	r5, ip
 8000554:	f000 f8de 	bleq	8000714 <__aeabi_dmul+0x1dc>
 8000558:	442c      	add	r4, r5
 800055a:	ea81 0603 	eor.w	r6, r1, r3
 800055e:	ea21 514c 	bic.w	r1, r1, ip, lsl #21
 8000562:	ea23 534c 	bic.w	r3, r3, ip, lsl #21
 8000566:	ea50 3501 	orrs.w	r5, r0, r1, lsl #12
 800056a:	bf18      	it	ne
 800056c:	ea52 3503 	orrsne.w	r5, r2, r3, lsl #12
 8000570:	f441 1180 	orr.w	r1, r1, #1048576	; 0x100000
 8000574:	f443 1380 	orr.w	r3, r3, #1048576	; 0x100000
 8000578:	d038      	beq.n	80005ec <__aeabi_dmul+0xb4>
 800057a:	fba0 ce02 	umull	ip, lr, r0, r2
 800057e:	f04f 0500 	mov.w	r5, #0
 8000582:	fbe1 e502 	umlal	lr, r5, r1, r2
 8000586:	f006 4200 	and.w	r2, r6, #2147483648	; 0x80000000
 800058a:	fbe0 e503 	umlal	lr, r5, r0, r3
 800058e:	f04f 0600 	mov.w	r6, #0
 8000592:	fbe1 5603 	umlal	r5, r6, r1, r3
 8000596:	f09c 0f00 	teq	ip, #0
 800059a:	bf18      	it	ne
 800059c:	f04e 0e01 	orrne.w	lr, lr, #1
 80005a0:	f1a4 04ff 	sub.w	r4, r4, #255	; 0xff
 80005a4:	f5b6 7f00 	cmp.w	r6, #512	; 0x200
 80005a8:	f564 7440 	sbc.w	r4, r4, #768	; 0x300
 80005ac:	d204      	bcs.n	80005b8 <__aeabi_dmul+0x80>
 80005ae:	ea5f 0e4e 	movs.w	lr, lr, lsl #1
 80005b2:	416d      	adcs	r5, r5
 80005b4:	eb46 0606 	adc.w	r6, r6, r6
 80005b8:	ea42 21c6 	orr.w	r1, r2, r6, lsl #11
 80005bc:	ea41 5155 	orr.w	r1, r1, r5, lsr #21
 80005c0:	ea4f 20c5 	mov.w	r0, r5, lsl #11
 80005c4:	ea40 505e 	orr.w	r0, r0, lr, lsr #21
 80005c8:	ea4f 2ece 	mov.w	lr, lr, lsl #11
 80005cc:	f1b4 0cfd 	subs.w	ip, r4, #253	; 0xfd
 80005d0:	bf88      	it	hi
 80005d2:	f5bc 6fe0 	cmphi.w	ip, #1792	; 0x700
 80005d6:	d81e      	bhi.n	8000616 <__aeabi_dmul+0xde>
 80005d8:	f1be 4f00 	cmp.w	lr, #2147483648	; 0x80000000
 80005dc:	bf08      	it	eq
 80005de:	ea5f 0e50 	movseq.w	lr, r0, lsr #1
 80005e2:	f150 0000 	adcs.w	r0, r0, #0
 80005e6:	eb41 5104 	adc.w	r1, r1, r4, lsl #20
 80005ea:	bd70      	pop	{r4, r5, r6, pc}
 80005ec:	f006 4600 	and.w	r6, r6, #2147483648	; 0x80000000
 80005f0:	ea46 0101 	orr.w	r1, r6, r1
 80005f4:	ea40 0002 	orr.w	r0, r0, r2
 80005f8:	ea81 0103 	eor.w	r1, r1, r3
 80005fc:	ebb4 045c 	subs.w	r4, r4, ip, lsr #1
 8000600:	bfc2      	ittt	gt
 8000602:	ebd4 050c 	rsbsgt	r5, r4, ip
 8000606:	ea41 5104 	orrgt.w	r1, r1, r4, lsl #20
 800060a:	bd70      	popgt	{r4, r5, r6, pc}
 800060c:	f441 1180 	orr.w	r1, r1, #1048576	; 0x100000
 8000610:	f04f 0e00 	mov.w	lr, #0
 8000614:	3c01      	subs	r4, #1
 8000616:	f300 80ab 	bgt.w	8000770 <__aeabi_dmul+0x238>
 800061a:	f114 0f36 	cmn.w	r4, #54	; 0x36
 800061e:	bfde      	ittt	le
 8000620:	2000      	movle	r0, #0
 8000622:	f001 4100 	andle.w	r1, r1, #2147483648	; 0x80000000
 8000626:	bd70      	pople	{r4, r5, r6, pc}
 8000628:	f1c4 0400 	rsb	r4, r4, #0
 800062c:	3c20      	subs	r4, #32
 800062e:	da35      	bge.n	800069c <__aeabi_dmul+0x164>
 8000630:	340c      	adds	r4, #12
 8000632:	dc1b      	bgt.n	800066c <__aeabi_dmul+0x134>
 8000634:	f104 0414 	add.w	r4, r4, #20
 8000638:	f1c4 0520 	rsb	r5, r4, #32
 800063c:	fa00 f305 	lsl.w	r3, r0, r5
 8000640:	fa20 f004 	lsr.w	r0, r0, r4
 8000644:	fa01 f205 	lsl.w	r2, r1, r5
 8000648:	ea40 0002 	orr.w	r0, r0, r2
 800064c:	f001 4200 	and.w	r2, r1, #2147483648	; 0x80000000
 8000650:	f021 4100 	bic.w	r1, r1, #2147483648	; 0x80000000
 8000654:	eb10 70d3 	adds.w	r0, r0, r3, lsr #31
 8000658:	fa21 f604 	lsr.w	r6, r1, r4
 800065c:	eb42 0106 	adc.w	r1, r2, r6
 8000660:	ea5e 0e43 	orrs.w	lr, lr, r3, lsl #1
 8000664:	bf08      	it	eq
 8000666:	ea20 70d3 	biceq.w	r0, r0, r3, lsr #31
 800066a:	bd70      	pop	{r4, r5, r6, pc}
 800066c:	f1c4 040c 	rsb	r4, r4, #12
 8000670:	f1c4 0520 	rsb	r5, r4, #32
 8000674:	fa00 f304 	lsl.w	r3, r0, r4
 8000678:	fa20 f005 	lsr.w	r0, r0, r5
 800067c:	fa01 f204 	lsl.w	r2, r1, r4
 8000680:	ea40 0002 	orr.w	r0, r0, r2
 8000684:	f001 4100 	and.w	r1, r1, #2147483648	; 0x80000000
 8000688:	eb10 70d3 	adds.w	r0, r0, r3, lsr #31
 800068c:	f141 0100 	adc.w	r1, r1, #0
 8000690:	ea5e 0e43 	orrs.w	lr, lr, r3, lsl #1
 8000694:	bf08      	it	eq
 8000696:	ea20 70d3 	biceq.w	r0, r0, r3, lsr #31
 800069a:	bd70      	pop	{r4, r5, r6, pc}
 800069c:	f1c4 0520 	rsb	r5, r4, #32
 80006a0:	fa00 f205 	lsl.w	r2, r0, r5
 80006a4:	ea4e 0e02 	orr.w	lr, lr, r2
 80006a8:	fa20 f304 	lsr.w	r3, r0, r4
 80006ac:	fa01 f205 	lsl.w	r2, r1, r5
 80006b0:	ea43 0302 	orr.w	r3, r3, r2
 80006b4:	fa21 f004 	lsr.w	r0, r1, r4
 80006b8:	f001 4100 	and.w	r1, r1, #2147483648	; 0x80000000
 80006bc:	fa21 f204 	lsr.w	r2, r1, r4
 80006c0:	ea20 0002 	bic.w	r0, r0, r2
 80006c4:	eb00 70d3 	add.w	r0, r0, r3, lsr #31
 80006c8:	ea5e 0e43 	orrs.w	lr, lr, r3, lsl #1
 80006cc:	bf08      	it	eq
 80006ce:	ea20 70d3 	biceq.w	r0, r0, r3, lsr #31
 80006d2:	bd70      	pop	{r4, r5, r6, pc}
 80006d4:	f094 0f00 	teq	r4, #0
 80006d8:	d10f      	bne.n	80006fa <__aeabi_dmul+0x1c2>
 80006da:	f001 4600 	and.w	r6, r1, #2147483648	; 0x80000000
 80006de:	0040      	lsls	r0, r0, #1
 80006e0:	eb41 0101 	adc.w	r1, r1, r1
 80006e4:	f411 1f80 	tst.w	r1, #1048576	; 0x100000
 80006e8:	bf08      	it	eq
 80006ea:	3c01      	subeq	r4, #1
 80006ec:	d0f7      	beq.n	80006de <__aeabi_dmul+0x1a6>
 80006ee:	ea41 0106 	orr.w	r1, r1, r6
 80006f2:	f095 0f00 	teq	r5, #0
 80006f6:	bf18      	it	ne
 80006f8:	4770      	bxne	lr
 80006fa:	f003 4600 	and.w	r6, r3, #2147483648	; 0x80000000
 80006fe:	0052      	lsls	r2, r2, #1
 8000700:	eb43 0303 	adc.w	r3, r3, r3
 8000704:	f413 1f80 	tst.w	r3, #1048576	; 0x100000
 8000708:	bf08      	it	eq
 800070a:	3d01      	subeq	r5, #1
 800070c:	d0f7      	beq.n	80006fe <__aeabi_dmul+0x1c6>
 800070e:	ea43 0306 	orr.w	r3, r3, r6
 8000712:	4770      	bx	lr
 8000714:	ea94 0f0c 	teq	r4, ip
 8000718:	ea0c 5513 	and.w	r5, ip, r3, lsr #20
 800071c:	bf18      	it	ne
 800071e:	ea95 0f0c 	teqne	r5, ip
 8000722:	d00c      	beq.n	800073e <__aeabi_dmul+0x206>
 8000724:	ea50 0641 	orrs.w	r6, r0, r1, lsl #1
 8000728:	bf18      	it	ne
 800072a:	ea52 0643 	orrsne.w	r6, r2, r3, lsl #1
 800072e:	d1d1      	bne.n	80006d4 <__aeabi_dmul+0x19c>
 8000730:	ea81 0103 	eor.w	r1, r1, r3
 8000734:	f001 4100 	and.w	r1, r1, #2147483648	; 0x80000000
 8000738:	f04f 0000 	mov.w	r0, #0
 800073c:	bd70      	pop	{r4, r5, r6, pc}
 800073e:	ea50 0641 	orrs.w	r6, r0, r1, lsl #1
 8000742:	bf06      	itte	eq
 8000744:	4610      	moveq	r0, r2
 8000746:	4619      	moveq	r1, r3
 8000748:	ea52 0643 	orrsne.w	r6, r2, r3, lsl #1
 800074c:	d019      	beq.n	8000782 <__aeabi_dmul+0x24a>
 800074e:	ea94 0f0c 	teq	r4, ip
 8000752:	d102      	bne.n	800075a <__aeabi_dmul+0x222>
 8000754:	ea50 3601 	orrs.w	r6, r0, r1, lsl #12
 8000758:	d113      	bne.n	8000782 <__aeabi_dmul+0x24a>
 800075a:	ea95 0f0c 	teq	r5, ip
 800075e:	d105      	bne.n	800076c <__aeabi_dmul+0x234>
 8000760:	ea52 3603 	orrs.w	r6, r2, r3, lsl #12
 8000764:	bf1c      	itt	ne
 8000766:	4610      	movne	r0, r2
 8000768:	4619      	movne	r1, r3
 800076a:	d10a      	bne.n	8000782 <__aeabi_dmul+0x24a>
 800076c:	ea81 0103 	eor.w	r1, r1, r3
 8000770:	f001 4100 	and.w	r1, r1, #2147483648	; 0x80000000
 8000774:	f041 41fe 	orr.w	r1, r1, #2130706432	; 0x7f000000
 8000778:	f441 0170 	orr.w	r1, r1, #15728640	; 0xf00000
 800077c:	f04f 0000 	mov.w	r0, #0
 8000780:	bd70      	pop	{r4, r5, r6, pc}
 8000782:	f041 41fe 	orr.w	r1, r1, #2130706432	; 0x7f000000
 8000786:	f441 0178 	orr.w	r1, r1, #16252928	; 0xf80000
 800078a:	bd70      	pop	{r4, r5, r6, pc}

0800078c <__aeabi_ddiv>:
 800078c:	b570      	push	{r4, r5, r6, lr}
 800078e:	f04f 0cff 	mov.w	ip, #255	; 0xff
 8000792:	f44c 6ce0 	orr.w	ip, ip, #1792	; 0x700
 8000796:	ea1c 5411 	ands.w	r4, ip, r1, lsr #20
 800079a:	bf1d      	ittte	ne
 800079c:	ea1c 5513 	andsne.w	r5, ip, r3, lsr #20
 80007a0:	ea94 0f0c 	teqne	r4, ip
 80007a4:	ea95 0f0c 	teqne	r5, ip
 80007a8:	f000 f8a7 	bleq	80008fa <__aeabi_ddiv+0x16e>
 80007ac:	eba4 0405 	sub.w	r4, r4, r5
 80007b0:	ea81 0e03 	eor.w	lr, r1, r3
 80007b4:	ea52 3503 	orrs.w	r5, r2, r3, lsl #12
 80007b8:	ea4f 3101 	mov.w	r1, r1, lsl #12
 80007bc:	f000 8088 	beq.w	80008d0 <__aeabi_ddiv+0x144>
 80007c0:	ea4f 3303 	mov.w	r3, r3, lsl #12
 80007c4:	f04f 5580 	mov.w	r5, #268435456	; 0x10000000
 80007c8:	ea45 1313 	orr.w	r3, r5, r3, lsr #4
 80007cc:	ea43 6312 	orr.w	r3, r3, r2, lsr #24
 80007d0:	ea4f 2202 	mov.w	r2, r2, lsl #8
 80007d4:	ea45 1511 	orr.w	r5, r5, r1, lsr #4
 80007d8:	ea45 6510 	orr.w	r5, r5, r0, lsr #24
 80007dc:	ea4f 2600 	mov.w	r6, r0, lsl #8
 80007e0:	f00e 4100 	and.w	r1, lr, #2147483648	; 0x80000000
 80007e4:	429d      	cmp	r5, r3
 80007e6:	bf08      	it	eq
 80007e8:	4296      	cmpeq	r6, r2
 80007ea:	f144 04fd 	adc.w	r4, r4, #253	; 0xfd
 80007ee:	f504 7440 	add.w	r4, r4, #768	; 0x300
 80007f2:	d202      	bcs.n	80007fa <__aeabi_ddiv+0x6e>
 80007f4:	085b      	lsrs	r3, r3, #1
 80007f6:	ea4f 0232 	mov.w	r2, r2, rrx
 80007fa:	1ab6      	subs	r6, r6, r2
 80007fc:	eb65 0503 	sbc.w	r5, r5, r3
 8000800:	085b      	lsrs	r3, r3, #1
 8000802:	ea4f 0232 	mov.w	r2, r2, rrx
 8000806:	f44f 1080 	mov.w	r0, #1048576	; 0x100000
 800080a:	f44f 2c00 	mov.w	ip, #524288	; 0x80000
 800080e:	ebb6 0e02 	subs.w	lr, r6, r2
 8000812:	eb75 0e03 	sbcs.w	lr, r5, r3
 8000816:	bf22      	ittt	cs
 8000818:	1ab6      	subcs	r6, r6, r2
 800081a:	4675      	movcs	r5, lr
 800081c:	ea40 000c 	orrcs.w	r0, r0, ip
 8000820:	085b      	lsrs	r3, r3, #1
 8000822:	ea4f 0232 	mov.w	r2, r2, rrx
 8000826:	ebb6 0e02 	subs.w	lr, r6, r2
 800082a:	eb75 0e03 	sbcs.w	lr, r5, r3
 800082e:	bf22      	ittt	cs
 8000830:	1ab6      	subcs	r6, r6, r2
 8000832:	4675      	movcs	r5, lr
 8000834:	ea40 005c 	orrcs.w	r0, r0, ip, lsr #1
 8000838:	085b      	lsrs	r3, r3, #1
 800083a:	ea4f 0232 	mov.w	r2, r2, rrx
 800083e:	ebb6 0e02 	subs.w	lr, r6, r2
 8000842:	eb75 0e03 	sbcs.w	lr, r5, r3
 8000846:	bf22      	ittt	cs
 8000848:	1ab6      	subcs	r6, r6, r2
 800084a:	4675      	movcs	r5, lr
 800084c:	ea40 009c 	orrcs.w	r0, r0, ip, lsr #2
 8000850:	085b      	lsrs	r3, r3, #1
 8000852:	ea4f 0232 	mov.w	r2, r2, rrx
 8000856:	ebb6 0e02 	subs.w	lr, r6, r2
 800085a:	eb75 0e03 	sbcs.w	lr, r5, r3
 800085e:	bf22      	ittt	cs
 8000860:	1ab6      	subcs	r6, r6, r2
 8000862:	4675      	movcs	r5, lr
 8000864:	ea40 00dc 	orrcs.w	r0, r0, ip, lsr #3
 8000868:	ea55 0e06 	orrs.w	lr, r5, r6
 800086c:	d018      	beq.n	80008a0 <__aeabi_ddiv+0x114>
 800086e:	ea4f 1505 	mov.w	r5, r5, lsl #4
 8000872:	ea45 7516 	orr.w	r5, r5, r6, lsr #28
 8000876:	ea4f 1606 	mov.w	r6, r6, lsl #4
 800087a:	ea4f 03c3 	mov.w	r3, r3, lsl #3
 800087e:	ea43 7352 	orr.w	r3, r3, r2, lsr #29
 8000882:	ea4f 02c2 	mov.w	r2, r2, lsl #3
 8000886:	ea5f 1c1c 	movs.w	ip, ip, lsr #4
 800088a:	d1c0      	bne.n	800080e <__aeabi_ddiv+0x82>
 800088c:	f411 1f80 	tst.w	r1, #1048576	; 0x100000
 8000890:	d10b      	bne.n	80008aa <__aeabi_ddiv+0x11e>
 8000892:	ea41 0100 	orr.w	r1, r1, r0
 8000896:	f04f 0000 	mov.w	r0, #0
 800089a:	f04f 4c00 	mov.w	ip, #2147483648	; 0x80000000
 800089e:	e7b6      	b.n	800080e <__aeabi_ddiv+0x82>
 80008a0:	f411 1f80 	tst.w	r1, #1048576	; 0x100000
 80008a4:	bf04      	itt	eq
 80008a6:	4301      	orreq	r1, r0
 80008a8:	2000      	moveq	r0, #0
 80008aa:	f1b4 0cfd 	subs.w	ip, r4, #253	; 0xfd
 80008ae:	bf88      	it	hi
 80008b0:	f5bc 6fe0 	cmphi.w	ip, #1792	; 0x700
 80008b4:	f63f aeaf 	bhi.w	8000616 <__aeabi_dmul+0xde>
 80008b8:	ebb5 0c03 	subs.w	ip, r5, r3
 80008bc:	bf04      	itt	eq
 80008be:	ebb6 0c02 	subseq.w	ip, r6, r2
 80008c2:	ea5f 0c50 	movseq.w	ip, r0, lsr #1
 80008c6:	f150 0000 	adcs.w	r0, r0, #0
 80008ca:	eb41 5104 	adc.w	r1, r1, r4, lsl #20
 80008ce:	bd70      	pop	{r4, r5, r6, pc}
 80008d0:	f00e 4e00 	and.w	lr, lr, #2147483648	; 0x80000000
 80008d4:	ea4e 3111 	orr.w	r1, lr, r1, lsr #12
 80008d8:	eb14 045c 	adds.w	r4, r4, ip, lsr #1
 80008dc:	bfc2      	ittt	gt
 80008de:	ebd4 050c 	rsbsgt	r5, r4, ip
 80008e2:	ea41 5104 	orrgt.w	r1, r1, r4, lsl #20
 80008e6:	bd70      	popgt	{r4, r5, r6, pc}
 80008e8:	f441 1180 	orr.w	r1, r1, #1048576	; 0x100000
 80008ec:	f04f 0e00 	mov.w	lr, #0
 80008f0:	3c01      	subs	r4, #1
 80008f2:	e690      	b.n	8000616 <__aeabi_dmul+0xde>
 80008f4:	ea45 0e06 	orr.w	lr, r5, r6
 80008f8:	e68d      	b.n	8000616 <__aeabi_dmul+0xde>
 80008fa:	ea0c 5513 	and.w	r5, ip, r3, lsr #20
 80008fe:	ea94 0f0c 	teq	r4, ip
 8000902:	bf08      	it	eq
 8000904:	ea95 0f0c 	teqeq	r5, ip
 8000908:	f43f af3b 	beq.w	8000782 <__aeabi_dmul+0x24a>
 800090c:	ea94 0f0c 	teq	r4, ip
 8000910:	d10a      	bne.n	8000928 <__aeabi_ddiv+0x19c>
 8000912:	ea50 3401 	orrs.w	r4, r0, r1, lsl #12
 8000916:	f47f af34 	bne.w	8000782 <__aeabi_dmul+0x24a>
 800091a:	ea95 0f0c 	teq	r5, ip
 800091e:	f47f af25 	bne.w	800076c <__aeabi_dmul+0x234>
 8000922:	4610      	mov	r0, r2
 8000924:	4619      	mov	r1, r3
 8000926:	e72c      	b.n	8000782 <__aeabi_dmul+0x24a>
 8000928:	ea95 0f0c 	teq	r5, ip
 800092c:	d106      	bne.n	800093c <__aeabi_ddiv+0x1b0>
 800092e:	ea52 3503 	orrs.w	r5, r2, r3, lsl #12
 8000932:	f43f aefd 	beq.w	8000730 <__aeabi_dmul+0x1f8>
 8000936:	4610      	mov	r0, r2
 8000938:	4619      	mov	r1, r3
 800093a:	e722      	b.n	8000782 <__aeabi_dmul+0x24a>
 800093c:	ea50 0641 	orrs.w	r6, r0, r1, lsl #1
 8000940:	bf18      	it	ne
 8000942:	ea52 0643 	orrsne.w	r6, r2, r3, lsl #1
 8000946:	f47f aec5 	bne.w	80006d4 <__aeabi_dmul+0x19c>
 800094a:	ea50 0441 	orrs.w	r4, r0, r1, lsl #1
 800094e:	f47f af0d 	bne.w	800076c <__aeabi_dmul+0x234>
 8000952:	ea52 0543 	orrs.w	r5, r2, r3, lsl #1
 8000956:	f47f aeeb 	bne.w	8000730 <__aeabi_dmul+0x1f8>
 800095a:	e712      	b.n	8000782 <__aeabi_dmul+0x24a>

0800095c <__gedf2>:
 800095c:	f04f 3cff 	mov.w	ip, #4294967295
 8000960:	e006      	b.n	8000970 <__cmpdf2+0x4>
 8000962:	bf00      	nop

08000964 <__ledf2>:
 8000964:	f04f 0c01 	mov.w	ip, #1
 8000968:	e002      	b.n	8000970 <__cmpdf2+0x4>
 800096a:	bf00      	nop

0800096c <__cmpdf2>:
 800096c:	f04f 0c01 	mov.w	ip, #1
 8000970:	f84d cd04 	str.w	ip, [sp, #-4]!
 8000974:	ea4f 0c41 	mov.w	ip, r1, lsl #1
 8000978:	ea7f 5c6c 	mvns.w	ip, ip, asr #21
 800097c:	ea4f 0c43 	mov.w	ip, r3, lsl #1
 8000980:	bf18      	it	ne
 8000982:	ea7f 5c6c 	mvnsne.w	ip, ip, asr #21
 8000986:	d01b      	beq.n	80009c0 <__cmpdf2+0x54>
 8000988:	b001      	add	sp, #4
 800098a:	ea50 0c41 	orrs.w	ip, r0, r1, lsl #1
 800098e:	bf0c      	ite	eq
 8000990:	ea52 0c43 	orrseq.w	ip, r2, r3, lsl #1
 8000994:	ea91 0f03 	teqne	r1, r3
 8000998:	bf02      	ittt	eq
 800099a:	ea90 0f02 	teqeq	r0, r2
 800099e:	2000      	moveq	r0, #0
 80009a0:	4770      	bxeq	lr
 80009a2:	f110 0f00 	cmn.w	r0, #0
 80009a6:	ea91 0f03 	teq	r1, r3
 80009aa:	bf58      	it	pl
 80009ac:	4299      	cmppl	r1, r3
 80009ae:	bf08      	it	eq
 80009b0:	4290      	cmpeq	r0, r2
 80009b2:	bf2c      	ite	cs
 80009b4:	17d8      	asrcs	r0, r3, #31
 80009b6:	ea6f 70e3 	mvncc.w	r0, r3, asr #31
 80009ba:	f040 0001 	orr.w	r0, r0, #1
 80009be:	4770      	bx	lr
 80009c0:	ea4f 0c41 	mov.w	ip, r1, lsl #1
 80009c4:	ea7f 5c6c 	mvns.w	ip, ip, asr #21
 80009c8:	d102      	bne.n	80009d0 <__cmpdf2+0x64>
 80009ca:	ea50 3c01 	orrs.w	ip, r0, r1, lsl #12
 80009ce:	d107      	bne.n	80009e0 <__cmpdf2+0x74>
 80009d0:	ea4f 0c43 	mov.w	ip, r3, lsl #1
 80009d4:	ea7f 5c6c 	mvns.w	ip, ip, asr #21
 80009d8:	d1d6      	bne.n	8000988 <__cmpdf2+0x1c>
 80009da:	ea52 3c03 	orrs.w	ip, r2, r3, lsl #12
 80009de:	d0d3      	beq.n	8000988 <__cmpdf2+0x1c>
 80009e0:	f85d 0b04 	ldr.w	r0, [sp], #4
 80009e4:	4770      	bx	lr
 80009e6:	bf00      	nop

080009e8 <__aeabi_cdrcmple>:
 80009e8:	4684      	mov	ip, r0
 80009ea:	4610      	mov	r0, r2
 80009ec:	4662      	mov	r2, ip
 80009ee:	468c      	mov	ip, r1
 80009f0:	4619      	mov	r1, r3
 80009f2:	4663      	mov	r3, ip
 80009f4:	e000      	b.n	80009f8 <__aeabi_cdcmpeq>
 80009f6:	bf00      	nop

080009f8 <__aeabi_cdcmpeq>:
 80009f8:	b501      	push	{r0, lr}
 80009fa:	f7ff ffb7 	bl	800096c <__cmpdf2>
 80009fe:	2800      	cmp	r0, #0
 8000a00:	bf48      	it	mi
 8000a02:	f110 0f00 	cmnmi.w	r0, #0
 8000a06:	bd01      	pop	{r0, pc}

08000a08 <__aeabi_dcmpeq>:
 8000a08:	f84d ed08 	str.w	lr, [sp, #-8]!
 8000a0c:	f7ff fff4 	bl	80009f8 <__aeabi_cdcmpeq>
 8000a10:	bf0c      	ite	eq
 8000a12:	2001      	moveq	r0, #1
 8000a14:	2000      	movne	r0, #0
 8000a16:	f85d fb08 	ldr.w	pc, [sp], #8
 8000a1a:	bf00      	nop

08000a1c <__aeabi_dcmplt>:
 8000a1c:	f84d ed08 	str.w	lr, [sp, #-8]!
 8000a20:	f7ff ffea 	bl	80009f8 <__aeabi_cdcmpeq>
 8000a24:	bf34      	ite	cc
 8000a26:	2001      	movcc	r0, #1
 8000a28:	2000      	movcs	r0, #0
 8000a2a:	f85d fb08 	ldr.w	pc, [sp], #8
 8000a2e:	bf00      	nop

08000a30 <__aeabi_dcmple>:
 8000a30:	f84d ed08 	str.w	lr, [sp, #-8]!
 8000a34:	f7ff ffe0 	bl	80009f8 <__aeabi_cdcmpeq>
 8000a38:	bf94      	ite	ls
 8000a3a:	2001      	movls	r0, #1
 8000a3c:	2000      	movhi	r0, #0
 8000a3e:	f85d fb08 	ldr.w	pc, [sp], #8
 8000a42:	bf00      	nop

08000a44 <__aeabi_dcmpge>:
 8000a44:	f84d ed08 	str.w	lr, [sp, #-8]!
 8000a48:	f7ff ffce 	bl	80009e8 <__aeabi_cdrcmple>
 8000a4c:	bf94      	ite	ls
 8000a4e:	2001      	movls	r0, #1
 8000a50:	2000      	movhi	r0, #0
 8000a52:	f85d fb08 	ldr.w	pc, [sp], #8
 8000a56:	bf00      	nop

08000a58 <__aeabi_dcmpgt>:
 8000a58:	f84d ed08 	str.w	lr, [sp, #-8]!
 8000a5c:	f7ff ffc4 	bl	80009e8 <__aeabi_cdrcmple>
 8000a60:	bf34      	ite	cc
 8000a62:	2001      	movcc	r0, #1
 8000a64:	2000      	movcs	r0, #0
 8000a66:	f85d fb08 	ldr.w	pc, [sp], #8
 8000a6a:	bf00      	nop

08000a6c <__aeabi_d2iz>:
 8000a6c:	ea4f 0241 	mov.w	r2, r1, lsl #1
 8000a70:	f512 1200 	adds.w	r2, r2, #2097152	; 0x200000
 8000a74:	d215      	bcs.n	8000aa2 <__aeabi_d2iz+0x36>
 8000a76:	d511      	bpl.n	8000a9c <__aeabi_d2iz+0x30>
 8000a78:	f46f 7378 	mvn.w	r3, #992	; 0x3e0
 8000a7c:	ebb3 5262 	subs.w	r2, r3, r2, asr #21
 8000a80:	d912      	bls.n	8000aa8 <__aeabi_d2iz+0x3c>
 8000a82:	ea4f 23c1 	mov.w	r3, r1, lsl #11
 8000a86:	f043 4300 	orr.w	r3, r3, #2147483648	; 0x80000000
 8000a8a:	ea43 5350 	orr.w	r3, r3, r0, lsr #21
 8000a8e:	f011 4f00 	tst.w	r1, #2147483648	; 0x80000000
 8000a92:	fa23 f002 	lsr.w	r0, r3, r2
 8000a96:	bf18      	it	ne
 8000a98:	4240      	negne	r0, r0
 8000a9a:	4770      	bx	lr
 8000a9c:	f04f 0000 	mov.w	r0, #0
 8000aa0:	4770      	bx	lr
 8000aa2:	ea50 3001 	orrs.w	r0, r0, r1, lsl #12
 8000aa6:	d105      	bne.n	8000ab4 <__aeabi_d2iz+0x48>
 8000aa8:	f011 4000 	ands.w	r0, r1, #2147483648	; 0x80000000
 8000aac:	bf08      	it	eq
 8000aae:	f06f 4000 	mvneq.w	r0, #2147483648	; 0x80000000
 8000ab2:	4770      	bx	lr
 8000ab4:	f04f 0000 	mov.w	r0, #0
 8000ab8:	4770      	bx	lr
 8000aba:	bf00      	nop

08000abc <__aeabi_d2f>:
 8000abc:	ea4f 0241 	mov.w	r2, r1, lsl #1
 8000ac0:	f1b2 43e0 	subs.w	r3, r2, #1879048192	; 0x70000000
 8000ac4:	bf24      	itt	cs
 8000ac6:	f5b3 1c00 	subscs.w	ip, r3, #2097152	; 0x200000
 8000aca:	f1dc 5cfe 	rsbscs	ip, ip, #532676608	; 0x1fc00000
 8000ace:	d90d      	bls.n	8000aec <__aeabi_d2f+0x30>
 8000ad0:	f001 4c00 	and.w	ip, r1, #2147483648	; 0x80000000
 8000ad4:	ea4f 02c0 	mov.w	r2, r0, lsl #3
 8000ad8:	ea4c 7050 	orr.w	r0, ip, r0, lsr #29
 8000adc:	f1b2 4f00 	cmp.w	r2, #2147483648	; 0x80000000
 8000ae0:	eb40 0083 	adc.w	r0, r0, r3, lsl #2
 8000ae4:	bf08      	it	eq
 8000ae6:	f020 0001 	biceq.w	r0, r0, #1
 8000aea:	4770      	bx	lr
 8000aec:	f011 4f80 	tst.w	r1, #1073741824	; 0x40000000
 8000af0:	d121      	bne.n	8000b36 <__aeabi_d2f+0x7a>
 8000af2:	f113 7238 	adds.w	r2, r3, #48234496	; 0x2e00000
 8000af6:	bfbc      	itt	lt
 8000af8:	f001 4000 	andlt.w	r0, r1, #2147483648	; 0x80000000
 8000afc:	4770      	bxlt	lr
 8000afe:	f441 1180 	orr.w	r1, r1, #1048576	; 0x100000
 8000b02:	ea4f 5252 	mov.w	r2, r2, lsr #21
 8000b06:	f1c2 0218 	rsb	r2, r2, #24
 8000b0a:	f1c2 0c20 	rsb	ip, r2, #32
 8000b0e:	fa10 f30c 	lsls.w	r3, r0, ip
 8000b12:	fa20 f002 	lsr.w	r0, r0, r2
 8000b16:	bf18      	it	ne
 8000b18:	f040 0001 	orrne.w	r0, r0, #1
 8000b1c:	ea4f 23c1 	mov.w	r3, r1, lsl #11
 8000b20:	ea4f 23d3 	mov.w	r3, r3, lsr #11
 8000b24:	fa03 fc0c 	lsl.w	ip, r3, ip
 8000b28:	ea40 000c 	orr.w	r0, r0, ip
 8000b2c:	fa23 f302 	lsr.w	r3, r3, r2
 8000b30:	ea4f 0343 	mov.w	r3, r3, lsl #1
 8000b34:	e7cc      	b.n	8000ad0 <__aeabi_d2f+0x14>
 8000b36:	ea7f 5362 	mvns.w	r3, r2, asr #21
 8000b3a:	d107      	bne.n	8000b4c <__aeabi_d2f+0x90>
 8000b3c:	ea50 3301 	orrs.w	r3, r0, r1, lsl #12
 8000b40:	bf1e      	ittt	ne
 8000b42:	f04f 40fe 	movne.w	r0, #2130706432	; 0x7f000000
 8000b46:	f440 0040 	orrne.w	r0, r0, #12582912	; 0xc00000
 8000b4a:	4770      	bxne	lr
 8000b4c:	f001 4000 	and.w	r0, r1, #2147483648	; 0x80000000
 8000b50:	f040 40fe 	orr.w	r0, r0, #2130706432	; 0x7f000000
 8000b54:	f440 0000 	orr.w	r0, r0, #8388608	; 0x800000
 8000b58:	4770      	bx	lr
 8000b5a:	bf00      	nop

08000b5c <NVIC_EnableIRQ>:
    The function enables a device-specific interrupt in the NVIC interrupt controller.

    \param [in]      IRQn  External interrupt number. Value cannot be negative.
 */
__STATIC_INLINE void NVIC_EnableIRQ(IRQn_Type IRQn)
{
 8000b5c:	b480      	push	{r7}
 8000b5e:	b083      	sub	sp, #12
 8000b60:	af00      	add	r7, sp, #0
 8000b62:	4603      	mov	r3, r0
 8000b64:	71fb      	strb	r3, [r7, #7]
/*  NVIC->ISER[((uint32_t)(IRQn) >> 5)] = (1 << ((uint32_t)(IRQn) & 0x1F));  enable interrupt */
  NVIC->ISER[(uint32_t)((int32_t)IRQn) >> 5] = (uint32_t)(1 << ((uint32_t)((int32_t)IRQn) & (uint32_t)0x1F)); /* enable interrupt */
 8000b66:	4909      	ldr	r1, [pc, #36]	; (8000b8c <NVIC_EnableIRQ+0x30>)
 8000b68:	f997 3007 	ldrsb.w	r3, [r7, #7]
 8000b6c:	095b      	lsrs	r3, r3, #5
 8000b6e:	f997 2007 	ldrsb.w	r2, [r7, #7]
 8000b72:	f002 021f 	and.w	r2, r2, #31
 8000b76:	2001      	movs	r0, #1
 8000b78:	fa00 f202 	lsl.w	r2, r0, r2
 8000b7c:	f841 2023 	str.w	r2, [r1, r3, lsl #2]
}
 8000b80:	bf00      	nop
 8000b82:	370c      	adds	r7, #12
 8000b84:	46bd      	mov	sp, r7
 8000b86:	f85d 7b04 	ldr.w	r7, [sp], #4
 8000b8a:	4770      	bx	lr
 8000b8c:	e000e100 	.word	0xe000e100

08000b90 <NVIC_SetPriority>:

    \param [in]      IRQn  Interrupt number.
    \param [in]  priority  Priority to set.
 */
__STATIC_INLINE void NVIC_SetPriority(IRQn_Type IRQn, uint32_t priority)
{
 8000b90:	b480      	push	{r7}
 8000b92:	b083      	sub	sp, #12
 8000b94:	af00      	add	r7, sp, #0
 8000b96:	4603      	mov	r3, r0
 8000b98:	6039      	str	r1, [r7, #0]
 8000b9a:	71fb      	strb	r3, [r7, #7]
  if(IRQn < 0) {
 8000b9c:	f997 3007 	ldrsb.w	r3, [r7, #7]
 8000ba0:	2b00      	cmp	r3, #0
 8000ba2:	da0b      	bge.n	8000bbc <NVIC_SetPriority+0x2c>
    SCB->SHP[((uint32_t)(IRQn) & 0xF)-4] = ((priority << (8 - __NVIC_PRIO_BITS)) & 0xff); } /* set Priority for Cortex-M  System Interrupts */
 8000ba4:	490d      	ldr	r1, [pc, #52]	; (8000bdc <NVIC_SetPriority+0x4c>)
 8000ba6:	79fb      	ldrb	r3, [r7, #7]
 8000ba8:	f003 030f 	and.w	r3, r3, #15
 8000bac:	3b04      	subs	r3, #4
 8000bae:	683a      	ldr	r2, [r7, #0]
 8000bb0:	b2d2      	uxtb	r2, r2
 8000bb2:	0112      	lsls	r2, r2, #4
 8000bb4:	b2d2      	uxtb	r2, r2
 8000bb6:	440b      	add	r3, r1
 8000bb8:	761a      	strb	r2, [r3, #24]
  else {
    NVIC->IP[(uint32_t)(IRQn)] = ((priority << (8 - __NVIC_PRIO_BITS)) & 0xff);    }        /* set Priority for device specific Interrupts  */
}
 8000bba:	e009      	b.n	8000bd0 <NVIC_SetPriority+0x40>
    NVIC->IP[(uint32_t)(IRQn)] = ((priority << (8 - __NVIC_PRIO_BITS)) & 0xff);    }        /* set Priority for device specific Interrupts  */
 8000bbc:	4908      	ldr	r1, [pc, #32]	; (8000be0 <NVIC_SetPriority+0x50>)
 8000bbe:	f997 3007 	ldrsb.w	r3, [r7, #7]
 8000bc2:	683a      	ldr	r2, [r7, #0]
 8000bc4:	b2d2      	uxtb	r2, r2
 8000bc6:	0112      	lsls	r2, r2, #4
 8000bc8:	b2d2      	uxtb	r2, r2
 8000bca:	440b      	add	r3, r1
 8000bcc:	f883 2300 	strb.w	r2, [r3, #768]	; 0x300
}
 8000bd0:	bf00      	nop
 8000bd2:	370c      	adds	r7, #12
 8000bd4:	46bd      	mov	sp, r7
 8000bd6:	f85d 7b04 	ldr.w	r7, [sp], #4
 8000bda:	4770      	bx	lr
 8000bdc:	e000ed00 	.word	0xe000ed00
 8000be0:	e000e100 	.word	0xe000e100

08000be4 <_Z18SystemClock_Configv>:
1110: system clock divided by 256
1111: system clock divided by 512
*/

void SystemClock_Config(void)
{
 8000be4:	b480      	push	{r7}
 8000be6:	b083      	sub	sp, #12
 8000be8:	af00      	add	r7, sp, #0
	uint32_t temp = 0x00000000;
 8000bea:	2300      	movs	r3, #0
 8000bec:	607b      	str	r3, [r7, #4]

	/* Enable Power Control clock */
	RCC->APB1ENR |= RCC_APB1ENR_PWREN;   // Enable PWREN bit (page - 183 of RM)
 8000bee:	4a3f      	ldr	r2, [pc, #252]	; (8000cec <_Z18SystemClock_Configv+0x108>)
 8000bf0:	4b3e      	ldr	r3, [pc, #248]	; (8000cec <_Z18SystemClock_Configv+0x108>)
 8000bf2:	6c1b      	ldr	r3, [r3, #64]	; 0x40
 8000bf4:	f043 5380 	orr.w	r3, r3, #268435456	; 0x10000000
 8000bf8:	6413      	str	r3, [r2, #64]	; 0x40

	/* The voltage scaling allows optimizing the power consumption when the device is
	 clocked below the maximum system frequency, to update the voltage scaling value
	 regarding system frequency refer to product datasheet.  */
	PWR->CR |= 0x00004000;    //VOS bit = 01 (page - 145 or RM)
 8000bfa:	4a3d      	ldr	r2, [pc, #244]	; (8000cf0 <_Z18SystemClock_Configv+0x10c>)
 8000bfc:	4b3c      	ldr	r3, [pc, #240]	; (8000cf0 <_Z18SystemClock_Configv+0x10c>)
 8000bfe:	681b      	ldr	r3, [r3, #0]
 8000c00:	f443 4380 	orr.w	r3, r3, #16384	; 0x4000
 8000c04:	6013      	str	r3, [r2, #0]
	/**************************************************************************/

#ifdef USE_HSE
	//RCC->CR &= ~0x00000001; // HSI OFF, not guaranteed, but does not matter, may be slight increase in current
	RCC->CR |= 0x00010000;    // HSE ON
 8000c06:	4a39      	ldr	r2, [pc, #228]	; (8000cec <_Z18SystemClock_Configv+0x108>)
 8000c08:	4b38      	ldr	r3, [pc, #224]	; (8000cec <_Z18SystemClock_Configv+0x108>)
 8000c0a:	681b      	ldr	r3, [r3, #0]
 8000c0c:	f443 3380 	orr.w	r3, r3, #65536	; 0x10000
 8000c10:	6013      	str	r3, [r2, #0]
	while((RCC->CR & 0x00020000) == 0);   // Wait till HSE is ready
 8000c12:	4b36      	ldr	r3, [pc, #216]	; (8000cec <_Z18SystemClock_Configv+0x108>)
 8000c14:	681b      	ldr	r3, [r3, #0]
 8000c16:	f403 3300 	and.w	r3, r3, #131072	; 0x20000
 8000c1a:	2b00      	cmp	r3, #0
 8000c1c:	bf0c      	ite	eq
 8000c1e:	2301      	moveq	r3, #1
 8000c20:	2300      	movne	r3, #0
 8000c22:	b2db      	uxtb	r3, r3
 8000c24:	2b00      	cmp	r3, #0
 8000c26:	d000      	beq.n	8000c2a <_Z18SystemClock_Configv+0x46>
 8000c28:	e7f3      	b.n	8000c12 <_Z18SystemClock_Configv+0x2e>

	// Set PLL
	temp = 0x00400000;    // PLL source is HSE (PLLSRC bit is set to one)
 8000c2a:	f44f 0380 	mov.w	r3, #4194304	; 0x400000
 8000c2e:	607b      	str	r3, [r7, #4]
	//RCC->CR &= ~0x00010000; // HSE OFF, not guaranteed, but does not matter, may be slight increase in current
	while((RCC->CR & 0x00000002) == 0);   // Wait till HSI is ready
#endif

	//	Set the clock multipliers and dividers
	temp |= (uint32_t)PLL_M;
 8000c30:	687b      	ldr	r3, [r7, #4]
 8000c32:	f043 0304 	orr.w	r3, r3, #4
 8000c36:	607b      	str	r3, [r7, #4]
	temp |= ((uint32_t)PLL_N << 6);
 8000c38:	687b      	ldr	r3, [r7, #4]
 8000c3a:	f443 5328 	orr.w	r3, r3, #10752	; 0x2a00
 8000c3e:	607b      	str	r3, [r7, #4]
	temp |= ((uint32_t)PLL_P << 16);
	temp |= ((uint32_t)PLL_Q << 24);
	RCC->PLLCFGR = temp;
 8000c40:	4a2a      	ldr	r2, [pc, #168]	; (8000cec <_Z18SystemClock_Configv+0x108>)
 8000c42:	687b      	ldr	r3, [r7, #4]
 8000c44:	6053      	str	r3, [r2, #4]

	//	Set AHB, APB1 and APB2 prescalars
	temp = RCC->CFGR;
 8000c46:	4b29      	ldr	r3, [pc, #164]	; (8000cec <_Z18SystemClock_Configv+0x108>)
 8000c48:	689b      	ldr	r3, [r3, #8]
 8000c4a:	607b      	str	r3, [r7, #4]
	temp |= ((uint32_t)AHB_PRESCALAR << 4);
	temp |= ((uint32_t)APB1_PRESCALAR << 10);
 8000c4c:	687b      	ldr	r3, [r7, #4]
 8000c4e:	f443 53a0 	orr.w	r3, r3, #5120	; 0x1400
 8000c52:	607b      	str	r3, [r7, #4]
	temp |= ((uint32_t)APB2_PRESCALAR << 13);
 8000c54:	687b      	ldr	r3, [r7, #4]
 8000c56:	f443 4320 	orr.w	r3, r3, #40960	; 0xa000
 8000c5a:	607b      	str	r3, [r7, #4]
	temp |= RCC_CFGR_SW_1;           // Select PLL as SYSCLK
 8000c5c:	687b      	ldr	r3, [r7, #4]
 8000c5e:	f043 0302 	orr.w	r3, r3, #2
 8000c62:	607b      	str	r3, [r7, #4]
	RCC->CFGR = temp;
 8000c64:	4a21      	ldr	r2, [pc, #132]	; (8000cec <_Z18SystemClock_Configv+0x108>)
 8000c66:	687b      	ldr	r3, [r7, #4]
 8000c68:	6093      	str	r3, [r2, #8]

	// The Flash access control register is used to enable/disable the acceleration features and control the Flash memory access time according to CPU frequency
	FLASH->ACR |= FLASH_ACR_LATENCY_5WS; // FLASH_LATENCY_5
 8000c6a:	4a22      	ldr	r2, [pc, #136]	; (8000cf4 <_Z18SystemClock_Configv+0x110>)
 8000c6c:	4b21      	ldr	r3, [pc, #132]	; (8000cf4 <_Z18SystemClock_Configv+0x110>)
 8000c6e:	681b      	ldr	r3, [r3, #0]
 8000c70:	f043 0305 	orr.w	r3, r3, #5
 8000c74:	6013      	str	r3, [r2, #0]

	// Switch ON the PLL
	RCC->CR |= RCC_CR_PLLON;    // PLL ON
 8000c76:	4a1d      	ldr	r2, [pc, #116]	; (8000cec <_Z18SystemClock_Configv+0x108>)
 8000c78:	4b1c      	ldr	r3, [pc, #112]	; (8000cec <_Z18SystemClock_Configv+0x108>)
 8000c7a:	681b      	ldr	r3, [r3, #0]
 8000c7c:	f043 7380 	orr.w	r3, r3, #16777216	; 0x1000000
 8000c80:	6013      	str	r3, [r2, #0]
	while((RCC->CR & RCC_CR_PLLRDY) == 0);   // Wait till PLL is ready
 8000c82:	4b1a      	ldr	r3, [pc, #104]	; (8000cec <_Z18SystemClock_Configv+0x108>)
 8000c84:	681b      	ldr	r3, [r3, #0]
 8000c86:	f003 7300 	and.w	r3, r3, #33554432	; 0x2000000
 8000c8a:	2b00      	cmp	r3, #0
 8000c8c:	bf0c      	ite	eq
 8000c8e:	2301      	moveq	r3, #1
 8000c90:	2300      	movne	r3, #0
 8000c92:	b2db      	uxtb	r3, r3
 8000c94:	2b00      	cmp	r3, #0
 8000c96:	d000      	beq.n	8000c9a <_Z18SystemClock_Configv+0xb6>
 8000c98:	e7f3      	b.n	8000c82 <_Z18SystemClock_Configv+0x9e>

	// wait till PLL is really used as SYSCLK
	while((RCC->CFGR & RCC_CFGR_SWS_PLL) == 0); // System clock switch status SWS = 0b10 = PLL is really selected
 8000c9a:	4b14      	ldr	r3, [pc, #80]	; (8000cec <_Z18SystemClock_Configv+0x108>)
 8000c9c:	689b      	ldr	r3, [r3, #8]
 8000c9e:	f003 0308 	and.w	r3, r3, #8
 8000ca2:	2b00      	cmp	r3, #0
 8000ca4:	bf0c      	ite	eq
 8000ca6:	2301      	moveq	r3, #1
 8000ca8:	2300      	movne	r3, #0
 8000caa:	b2db      	uxtb	r3, r3
 8000cac:	2b00      	cmp	r3, #0
 8000cae:	d000      	beq.n	8000cb2 <_Z18SystemClock_Configv+0xce>
 8000cb0:	e7f3      	b.n	8000c9a <_Z18SystemClock_Configv+0xb6>

	// STM32F405x/407x/415x/417x Revision Z devices: prefetch is supported
	volatile uint32_t idNumber = DBGMCU->IDCODE;
 8000cb2:	4b11      	ldr	r3, [pc, #68]	; (8000cf8 <_Z18SystemClock_Configv+0x114>)
 8000cb4:	681b      	ldr	r3, [r3, #0]
 8000cb6:	603b      	str	r3, [r7, #0]
	idNumber = idNumber >> 16;
 8000cb8:	683b      	ldr	r3, [r7, #0]
 8000cba:	0c1b      	lsrs	r3, r3, #16
 8000cbc:	603b      	str	r3, [r7, #0]

	// Enable the Flash prefetch
	if(idNumber == 0x1001)
 8000cbe:	683b      	ldr	r3, [r7, #0]
 8000cc0:	f241 0201 	movw	r2, #4097	; 0x1001
 8000cc4:	4293      	cmp	r3, r2
 8000cc6:	bf0c      	ite	eq
 8000cc8:	2301      	moveq	r3, #1
 8000cca:	2300      	movne	r3, #0
 8000ccc:	b2db      	uxtb	r3, r3
 8000cce:	2b00      	cmp	r3, #0
 8000cd0:	d005      	beq.n	8000cde <_Z18SystemClock_Configv+0xfa>
	{
	  FLASH->ACR |= FLASH_ACR_PRFTEN;
 8000cd2:	4a08      	ldr	r2, [pc, #32]	; (8000cf4 <_Z18SystemClock_Configv+0x110>)
 8000cd4:	4b07      	ldr	r3, [pc, #28]	; (8000cf4 <_Z18SystemClock_Configv+0x110>)
 8000cd6:	681b      	ldr	r3, [r3, #0]
 8000cd8:	f443 7380 	orr.w	r3, r3, #256	; 0x100
 8000cdc:	6013      	str	r3, [r2, #0]
	}
}
 8000cde:	bf00      	nop
 8000ce0:	370c      	adds	r7, #12
 8000ce2:	46bd      	mov	sp, r7
 8000ce4:	f85d 7b04 	ldr.w	r7, [sp], #4
 8000ce8:	4770      	bx	lr
 8000cea:	bf00      	nop
 8000cec:	40023800 	.word	0x40023800
 8000cf0:	40007000 	.word	0x40007000
 8000cf4:	40023c00 	.word	0x40023c00
 8000cf8:	e0042000 	.word	0xe0042000

08000cfc <_Z7InitDACv>:
	SysTick->CTRL |= SysTick_CTRL_TICKINT_Msk;			// Enable SysTick interrupt
	SysTick->CTRL |= SysTick_CTRL_ENABLE_Msk;			// Enable SysTick
}

void InitDAC()
{
 8000cfc:	b480      	push	{r7}
 8000cfe:	af00      	add	r7, sp, #0
	// Once the DAC channelx is enabled, the corresponding GPIO pin (PA4 or PA5) is automatically connected to the analog converter output (DAC_OUTx).
	// In order to avoid parasitic consumption, the PA4 or PA5 pin should first be configured to analog (AIN).

	// Enable DAC and GPIO Clock
	RCC->AHB1ENR |= RCC_AHB1ENR_GPIOAEN;	// Enable GPIO Clock
 8000d00:	4a20      	ldr	r2, [pc, #128]	; (8000d84 <_Z7InitDACv+0x88>)
 8000d02:	4b20      	ldr	r3, [pc, #128]	; (8000d84 <_Z7InitDACv+0x88>)
 8000d04:	6b1b      	ldr	r3, [r3, #48]	; 0x30
 8000d06:	f043 0301 	orr.w	r3, r3, #1
 8000d0a:	6313      	str	r3, [r2, #48]	; 0x30
	RCC->APB1ENR |= RCC_APB1ENR_DACEN;		// Enable DAC Clock
 8000d0c:	4a1d      	ldr	r2, [pc, #116]	; (8000d84 <_Z7InitDACv+0x88>)
 8000d0e:	4b1d      	ldr	r3, [pc, #116]	; (8000d84 <_Z7InitDACv+0x88>)
 8000d10:	6c1b      	ldr	r3, [r3, #64]	; 0x40
 8000d12:	f043 5300 	orr.w	r3, r3, #536870912	; 0x20000000
 8000d16:	6413      	str	r3, [r2, #64]	; 0x40

	DAC->CR |= DAC_CR_EN1;			// Enable DAC using PA4 (DAC_OUT1)
 8000d18:	4a1b      	ldr	r2, [pc, #108]	; (8000d88 <_Z7InitDACv+0x8c>)
 8000d1a:	4b1b      	ldr	r3, [pc, #108]	; (8000d88 <_Z7InitDACv+0x8c>)
 8000d1c:	681b      	ldr	r3, [r3, #0]
 8000d1e:	f043 0301 	orr.w	r3, r3, #1
 8000d22:	6013      	str	r3, [r2, #0]
	DAC->CR |= DAC_CR_BOFF1;		// Enable DAC channel output buffer to reduce the output impedance
 8000d24:	4a18      	ldr	r2, [pc, #96]	; (8000d88 <_Z7InitDACv+0x8c>)
 8000d26:	4b18      	ldr	r3, [pc, #96]	; (8000d88 <_Z7InitDACv+0x8c>)
 8000d28:	681b      	ldr	r3, [r3, #0]
 8000d2a:	f043 0302 	orr.w	r3, r3, #2
 8000d2e:	6013      	str	r3, [r2, #0]
	DAC->CR |= DAC_CR_TEN1;			// DAC 1 enable trigger
 8000d30:	4a15      	ldr	r2, [pc, #84]	; (8000d88 <_Z7InitDACv+0x8c>)
 8000d32:	4b15      	ldr	r3, [pc, #84]	; (8000d88 <_Z7InitDACv+0x8c>)
 8000d34:	681b      	ldr	r3, [r3, #0]
 8000d36:	f043 0304 	orr.w	r3, r3, #4
 8000d3a:	6013      	str	r3, [r2, #0]
	DAC->CR |= DAC_CR_TSEL1;		// Set trigger to software (0b111: Software trigger)
 8000d3c:	4a12      	ldr	r2, [pc, #72]	; (8000d88 <_Z7InitDACv+0x8c>)
 8000d3e:	4b12      	ldr	r3, [pc, #72]	; (8000d88 <_Z7InitDACv+0x8c>)
 8000d40:	681b      	ldr	r3, [r3, #0]
 8000d42:	f043 0338 	orr.w	r3, r3, #56	; 0x38
 8000d46:	6013      	str	r3, [r2, #0]

	DAC->CR |= DAC_CR_EN2;			// Enable DAC using PA5 (DAC_OUT2)
 8000d48:	4a0f      	ldr	r2, [pc, #60]	; (8000d88 <_Z7InitDACv+0x8c>)
 8000d4a:	4b0f      	ldr	r3, [pc, #60]	; (8000d88 <_Z7InitDACv+0x8c>)
 8000d4c:	681b      	ldr	r3, [r3, #0]
 8000d4e:	f443 3380 	orr.w	r3, r3, #65536	; 0x10000
 8000d52:	6013      	str	r3, [r2, #0]
	DAC->CR |= DAC_CR_BOFF2;		// Enable DAC channel output buffer
 8000d54:	4a0c      	ldr	r2, [pc, #48]	; (8000d88 <_Z7InitDACv+0x8c>)
 8000d56:	4b0c      	ldr	r3, [pc, #48]	; (8000d88 <_Z7InitDACv+0x8c>)
 8000d58:	681b      	ldr	r3, [r3, #0]
 8000d5a:	f443 3300 	orr.w	r3, r3, #131072	; 0x20000
 8000d5e:	6013      	str	r3, [r2, #0]
	DAC->CR |= DAC_CR_TEN2;			// DAC 2 enable trigger
 8000d60:	4a09      	ldr	r2, [pc, #36]	; (8000d88 <_Z7InitDACv+0x8c>)
 8000d62:	4b09      	ldr	r3, [pc, #36]	; (8000d88 <_Z7InitDACv+0x8c>)
 8000d64:	681b      	ldr	r3, [r3, #0]
 8000d66:	f443 2380 	orr.w	r3, r3, #262144	; 0x40000
 8000d6a:	6013      	str	r3, [r2, #0]
	DAC->CR |= DAC_CR_TSEL2;		// Set trigger to software (0b111: Software trigger)
 8000d6c:	4a06      	ldr	r2, [pc, #24]	; (8000d88 <_Z7InitDACv+0x8c>)
 8000d6e:	4b06      	ldr	r3, [pc, #24]	; (8000d88 <_Z7InitDACv+0x8c>)
 8000d70:	681b      	ldr	r3, [r3, #0]
 8000d72:	f443 1360 	orr.w	r3, r3, #3670016	; 0x380000
 8000d76:	6013      	str	r3, [r2, #0]

}
 8000d78:	bf00      	nop
 8000d7a:	46bd      	mov	sp, r7
 8000d7c:	f85d 7b04 	ldr.w	r7, [sp], #4
 8000d80:	4770      	bx	lr
 8000d82:	bf00      	nop
 8000d84:	40023800 	.word	0x40023800
 8000d88:	40007400 	.word	0x40007400

08000d8c <_Z6InitIOv>:


void InitIO()
{
 8000d8c:	b480      	push	{r7}
 8000d8e:	af00      	add	r7, sp, #0
	// PC6 Button in
	RCC->AHB1ENR |= RCC_AHB1ENR_GPIOCEN;			// reset and clock control - advanced high performamnce bus - GPIO port C
 8000d90:	4a1a      	ldr	r2, [pc, #104]	; (8000dfc <_Z6InitIOv+0x70>)
 8000d92:	4b1a      	ldr	r3, [pc, #104]	; (8000dfc <_Z6InitIOv+0x70>)
 8000d94:	6b1b      	ldr	r3, [r3, #48]	; 0x30
 8000d96:	f043 0304 	orr.w	r3, r3, #4
 8000d9a:	6313      	str	r3, [r2, #48]	; 0x30
	GPIOC->MODER &= ~(GPIO_MODER_MODER6);			// input mode is default
 8000d9c:	4a18      	ldr	r2, [pc, #96]	; (8000e00 <_Z6InitIOv+0x74>)
 8000d9e:	4b18      	ldr	r3, [pc, #96]	; (8000e00 <_Z6InitIOv+0x74>)
 8000da0:	681b      	ldr	r3, [r3, #0]
 8000da2:	f423 5340 	bic.w	r3, r3, #12288	; 0x3000
 8000da6:	6013      	str	r3, [r2, #0]
	GPIOC->PUPDR |= GPIO_PUPDR_PUPDR6_0;			// Set pin to pull up:  01 Pull-up; 10 Pull-down; 11 Reserved
 8000da8:	4a15      	ldr	r2, [pc, #84]	; (8000e00 <_Z6InitIOv+0x74>)
 8000daa:	4b15      	ldr	r3, [pc, #84]	; (8000e00 <_Z6InitIOv+0x74>)
 8000dac:	68db      	ldr	r3, [r3, #12]
 8000dae:	f443 5380 	orr.w	r3, r3, #4096	; 0x1000
 8000db2:	60d3      	str	r3, [r2, #12]

	// Set up PB12 and PB13 for4 octave up and down switch
	RCC->AHB1ENR |= RCC_AHB1ENR_GPIOBEN;			// reset and clock control - advanced high performamnce bus - GPIO port B
 8000db4:	4a11      	ldr	r2, [pc, #68]	; (8000dfc <_Z6InitIOv+0x70>)
 8000db6:	4b11      	ldr	r3, [pc, #68]	; (8000dfc <_Z6InitIOv+0x70>)
 8000db8:	6b1b      	ldr	r3, [r3, #48]	; 0x30
 8000dba:	f043 0302 	orr.w	r3, r3, #2
 8000dbe:	6313      	str	r3, [r2, #48]	; 0x30
	GPIOB->MODER &= ~(GPIO_MODER_MODER12);			// input mode is default
 8000dc0:	4a10      	ldr	r2, [pc, #64]	; (8000e04 <_Z6InitIOv+0x78>)
 8000dc2:	4b10      	ldr	r3, [pc, #64]	; (8000e04 <_Z6InitIOv+0x78>)
 8000dc4:	681b      	ldr	r3, [r3, #0]
 8000dc6:	f023 7340 	bic.w	r3, r3, #50331648	; 0x3000000
 8000dca:	6013      	str	r3, [r2, #0]
	GPIOB->MODER &= ~(GPIO_MODER_MODER13);			// input mode is default
 8000dcc:	4a0d      	ldr	r2, [pc, #52]	; (8000e04 <_Z6InitIOv+0x78>)
 8000dce:	4b0d      	ldr	r3, [pc, #52]	; (8000e04 <_Z6InitIOv+0x78>)
 8000dd0:	681b      	ldr	r3, [r3, #0]
 8000dd2:	f023 6340 	bic.w	r3, r3, #201326592	; 0xc000000
 8000dd6:	6013      	str	r3, [r2, #0]
	GPIOB->PUPDR |= GPIO_PUPDR_PUPDR12_1;			// Set pin to pull down:  01 Pull-up; 10 Pull-down; 11 Reserved
 8000dd8:	4a0a      	ldr	r2, [pc, #40]	; (8000e04 <_Z6InitIOv+0x78>)
 8000dda:	4b0a      	ldr	r3, [pc, #40]	; (8000e04 <_Z6InitIOv+0x78>)
 8000ddc:	68db      	ldr	r3, [r3, #12]
 8000dde:	f043 7300 	orr.w	r3, r3, #33554432	; 0x2000000
 8000de2:	60d3      	str	r3, [r2, #12]
	GPIOB->PUPDR |= GPIO_PUPDR_PUPDR13_1;			// Set pin to pull down:  01 Pull-up; 10 Pull-down; 11 Reserved
 8000de4:	4a07      	ldr	r2, [pc, #28]	; (8000e04 <_Z6InitIOv+0x78>)
 8000de6:	4b07      	ldr	r3, [pc, #28]	; (8000e04 <_Z6InitIOv+0x78>)
 8000de8:	68db      	ldr	r3, [r3, #12]
 8000dea:	f043 6300 	orr.w	r3, r3, #134217728	; 0x8000000
 8000dee:	60d3      	str	r3, [r2, #12]
	EXTI->RTSR |= EXTI_RTSR_TR13;					// Enable rising edge trigger for line 13
	EXTI->IMR |= EXTI_IMR_MR13;						// Activate interrupt using mask register 13

	NVIC_SetPriority(EXTI15_10_IRQn, 3);
	NVIC_EnableIRQ(EXTI15_10_IRQn);*/
}
 8000df0:	bf00      	nop
 8000df2:	46bd      	mov	sp, r7
 8000df4:	f85d 7b04 	ldr.w	r7, [sp], #4
 8000df8:	4770      	bx	lr
 8000dfa:	bf00      	nop
 8000dfc:	40023800 	.word	0x40023800
 8000e00:	40020800 	.word	0x40020800
 8000e04:	40020400 	.word	0x40020400

08000e08 <_Z9InitTimerv>:


void InitTimer()
{
 8000e08:	b580      	push	{r7, lr}
 8000e0a:	af00      	add	r7, sp, #0
	//	Setup Timer 3 on an interrupt to trigger sample loading
	RCC->APB1ENR |= RCC_APB1ENR_TIM3EN;		// Enable Timer 3
 8000e0c:	4a19      	ldr	r2, [pc, #100]	; (8000e74 <_Z9InitTimerv+0x6c>)
 8000e0e:	4b19      	ldr	r3, [pc, #100]	; (8000e74 <_Z9InitTimerv+0x6c>)
 8000e10:	6c1b      	ldr	r3, [r3, #64]	; 0x40
 8000e12:	f043 0302 	orr.w	r3, r3, #2
 8000e16:	6413      	str	r3, [r2, #64]	; 0x40
	TIM3->PSC = (SystemCoreClock / SAMPLERATE) / 4;	// Set prescaler to fire at sample rate - this is divided by 4 to match the APB2 prescaler
 8000e18:	4a17      	ldr	r2, [pc, #92]	; (8000e78 <_Z9InitTimerv+0x70>)
 8000e1a:	4b18      	ldr	r3, [pc, #96]	; (8000e7c <_Z9InitTimerv+0x74>)
 8000e1c:	681b      	ldr	r3, [r3, #0]
 8000e1e:	4918      	ldr	r1, [pc, #96]	; (8000e80 <_Z9InitTimerv+0x78>)
 8000e20:	fba1 1303 	umull	r1, r3, r1, r3
 8000e24:	0c9b      	lsrs	r3, r3, #18
 8000e26:	b29b      	uxth	r3, r3
 8000e28:	8513      	strh	r3, [r2, #40]	; 0x28
	TIM3->ARR = 1; //SystemCoreClock / 48000 - 1;	// Set maximum count value (auto reload register) - set to system clock / sampling rate
 8000e2a:	4b13      	ldr	r3, [pc, #76]	; (8000e78 <_Z9InitTimerv+0x70>)
 8000e2c:	2201      	movs	r2, #1
 8000e2e:	62da      	str	r2, [r3, #44]	; 0x2c

	SET_BIT(TIM3->DIER, TIM_DIER_UIE);				//  DMA/interrupt enable register
 8000e30:	4a11      	ldr	r2, [pc, #68]	; (8000e78 <_Z9InitTimerv+0x70>)
 8000e32:	4b11      	ldr	r3, [pc, #68]	; (8000e78 <_Z9InitTimerv+0x70>)
 8000e34:	899b      	ldrh	r3, [r3, #12]
 8000e36:	b29b      	uxth	r3, r3
 8000e38:	f043 0301 	orr.w	r3, r3, #1
 8000e3c:	b29b      	uxth	r3, r3
 8000e3e:	8193      	strh	r3, [r2, #12]
	NVIC_EnableIRQ(TIM3_IRQn);
 8000e40:	201d      	movs	r0, #29
 8000e42:	f7ff fe8b 	bl	8000b5c <NVIC_EnableIRQ>
	NVIC_SetPriority(TIM3_IRQn, 6);
 8000e46:	2106      	movs	r1, #6
 8000e48:	201d      	movs	r0, #29
 8000e4a:	f7ff fea1 	bl	8000b90 <NVIC_SetPriority>

	SET_BIT(TIM3->CR1, TIM_CR1_CEN);
 8000e4e:	4a0a      	ldr	r2, [pc, #40]	; (8000e78 <_Z9InitTimerv+0x70>)
 8000e50:	4b09      	ldr	r3, [pc, #36]	; (8000e78 <_Z9InitTimerv+0x70>)
 8000e52:	881b      	ldrh	r3, [r3, #0]
 8000e54:	b29b      	uxth	r3, r3
 8000e56:	f043 0301 	orr.w	r3, r3, #1
 8000e5a:	b29b      	uxth	r3, r3
 8000e5c:	8013      	strh	r3, [r2, #0]
	SET_BIT(TIM3->EGR, TIM_EGR_UG);
 8000e5e:	4a06      	ldr	r2, [pc, #24]	; (8000e78 <_Z9InitTimerv+0x70>)
 8000e60:	4b05      	ldr	r3, [pc, #20]	; (8000e78 <_Z9InitTimerv+0x70>)
 8000e62:	8a9b      	ldrh	r3, [r3, #20]
 8000e64:	b29b      	uxth	r3, r3
 8000e66:	f043 0301 	orr.w	r3, r3, #1
 8000e6a:	b29b      	uxth	r3, r3
 8000e6c:	8293      	strh	r3, [r2, #20]
}
 8000e6e:	bf00      	nop
 8000e70:	bd80      	pop	{r7, pc}
 8000e72:	bf00      	nop
 8000e74:	40023800 	.word	0x40023800
 8000e78:	40000400 	.word	0x40000400
 8000e7c:	20000024 	.word	0x20000024
 8000e80:	e90452d5 	.word	0xe90452d5

08000e84 <_Z7InitADCv>:

void InitADC(void)
{
 8000e84:	b480      	push	{r7}
 8000e86:	af00      	add	r7, sp, #0
	//	Setup Timer 2 to trigger ADC
	RCC->APB1ENR |= RCC_APB1ENR_TIM2EN;				// Enable Timer 2 clock
 8000e88:	4a9c      	ldr	r2, [pc, #624]	; (80010fc <_Z7InitADCv+0x278>)
 8000e8a:	4b9c      	ldr	r3, [pc, #624]	; (80010fc <_Z7InitADCv+0x278>)
 8000e8c:	6c1b      	ldr	r3, [r3, #64]	; 0x40
 8000e8e:	f043 0301 	orr.w	r3, r3, #1
 8000e92:	6413      	str	r3, [r2, #64]	; 0x40
	TIM2->CR2 |= TIM_CR2_MMS_2;						// 100: Compare - OC1REF signal is used as trigger output (TRGO)
 8000e94:	f04f 4280 	mov.w	r2, #1073741824	; 0x40000000
 8000e98:	f04f 4380 	mov.w	r3, #1073741824	; 0x40000000
 8000e9c:	889b      	ldrh	r3, [r3, #4]
 8000e9e:	b29b      	uxth	r3, r3
 8000ea0:	f043 0340 	orr.w	r3, r3, #64	; 0x40
 8000ea4:	b29b      	uxth	r3, r3
 8000ea6:	8093      	strh	r3, [r2, #4]
	TIM2->PSC = 20 - 1;								// Prescaler
 8000ea8:	f04f 4380 	mov.w	r3, #1073741824	; 0x40000000
 8000eac:	2213      	movs	r2, #19
 8000eae:	851a      	strh	r2, [r3, #40]	; 0x28
	TIM2->ARR = 100 - 1;							// Auto-reload register (ie reset counter) divided by 100
 8000eb0:	f04f 4380 	mov.w	r3, #1073741824	; 0x40000000
 8000eb4:	2263      	movs	r2, #99	; 0x63
 8000eb6:	62da      	str	r2, [r3, #44]	; 0x2c
	TIM2->CCR1 = 50 - 1;							// Capture and compare - ie when counter hits this number PWM high
 8000eb8:	f04f 4380 	mov.w	r3, #1073741824	; 0x40000000
 8000ebc:	2231      	movs	r2, #49	; 0x31
 8000ebe:	635a      	str	r2, [r3, #52]	; 0x34
	TIM2->CCER |= TIM_CCER_CC1E;					// Capture/Compare 1 output enable
 8000ec0:	f04f 4280 	mov.w	r2, #1073741824	; 0x40000000
 8000ec4:	f04f 4380 	mov.w	r3, #1073741824	; 0x40000000
 8000ec8:	8c1b      	ldrh	r3, [r3, #32]
 8000eca:	b29b      	uxth	r3, r3
 8000ecc:	f043 0301 	orr.w	r3, r3, #1
 8000ed0:	b29b      	uxth	r3, r3
 8000ed2:	8413      	strh	r3, [r2, #32]
	TIM2->CCMR1 |= TIM_CCMR1_OC1M_1 |TIM_CCMR1_OC1M_2;	// 110 PWM Mode 1
 8000ed4:	f04f 4280 	mov.w	r2, #1073741824	; 0x40000000
 8000ed8:	f04f 4380 	mov.w	r3, #1073741824	; 0x40000000
 8000edc:	8b1b      	ldrh	r3, [r3, #24]
 8000ede:	b29b      	uxth	r3, r3
 8000ee0:	f043 0360 	orr.w	r3, r3, #96	; 0x60
 8000ee4:	b29b      	uxth	r3, r3
 8000ee6:	8313      	strh	r3, [r2, #24]
	TIM2->CR1 |= TIM_CR1_CEN;
 8000ee8:	f04f 4280 	mov.w	r2, #1073741824	; 0x40000000
 8000eec:	f04f 4380 	mov.w	r3, #1073741824	; 0x40000000
 8000ef0:	881b      	ldrh	r3, [r3, #0]
 8000ef2:	b29b      	uxth	r3, r3
 8000ef4:	f043 0301 	orr.w	r3, r3, #1
 8000ef8:	b29b      	uxth	r3, r3
 8000efa:	8013      	strh	r3, [r2, #0]

	// Enable ADC2 and GPIO clock sources
	RCC->AHB1ENR |= RCC_AHB1ENR_GPIOAEN;
 8000efc:	4a7f      	ldr	r2, [pc, #508]	; (80010fc <_Z7InitADCv+0x278>)
 8000efe:	4b7f      	ldr	r3, [pc, #508]	; (80010fc <_Z7InitADCv+0x278>)
 8000f00:	6b1b      	ldr	r3, [r3, #48]	; 0x30
 8000f02:	f043 0301 	orr.w	r3, r3, #1
 8000f06:	6313      	str	r3, [r2, #48]	; 0x30
	RCC->AHB1ENR |= RCC_AHB1ENR_GPIOBEN;
 8000f08:	4a7c      	ldr	r2, [pc, #496]	; (80010fc <_Z7InitADCv+0x278>)
 8000f0a:	4b7c      	ldr	r3, [pc, #496]	; (80010fc <_Z7InitADCv+0x278>)
 8000f0c:	6b1b      	ldr	r3, [r3, #48]	; 0x30
 8000f0e:	f043 0302 	orr.w	r3, r3, #2
 8000f12:	6313      	str	r3, [r2, #48]	; 0x30
	RCC->AHB1ENR |= RCC_AHB1ENR_GPIOCEN;
 8000f14:	4a79      	ldr	r2, [pc, #484]	; (80010fc <_Z7InitADCv+0x278>)
 8000f16:	4b79      	ldr	r3, [pc, #484]	; (80010fc <_Z7InitADCv+0x278>)
 8000f18:	6b1b      	ldr	r3, [r3, #48]	; 0x30
 8000f1a:	f043 0304 	orr.w	r3, r3, #4
 8000f1e:	6313      	str	r3, [r2, #48]	; 0x30
	RCC->APB2ENR |= RCC_APB2ENR_ADC2EN;
 8000f20:	4a76      	ldr	r2, [pc, #472]	; (80010fc <_Z7InitADCv+0x278>)
 8000f22:	4b76      	ldr	r3, [pc, #472]	; (80010fc <_Z7InitADCv+0x278>)
 8000f24:	6c5b      	ldr	r3, [r3, #68]	; 0x44
 8000f26:	f443 7300 	orr.w	r3, r3, #512	; 0x200
 8000f2a:	6453      	str	r3, [r2, #68]	; 0x44

	// Enable ADC on PB0 mode: ADC12_IN8; PB1 mode: ADC12_IN9; PA1 mode: ADC123_IN1; PA2 mode: ADC123_IN2; PA3 mode: ADC123_IN3; PC0 mode: ADC123_IN10
	GPIOB->MODER |= GPIO_MODER_MODER1;				// Set PB1 to Analog mode (0b11)
 8000f2c:	4a74      	ldr	r2, [pc, #464]	; (8001100 <_Z7InitADCv+0x27c>)
 8000f2e:	4b74      	ldr	r3, [pc, #464]	; (8001100 <_Z7InitADCv+0x27c>)
 8000f30:	681b      	ldr	r3, [r3, #0]
 8000f32:	f043 030c 	orr.w	r3, r3, #12
 8000f36:	6013      	str	r3, [r2, #0]
	GPIOB->MODER |= GPIO_MODER_MODER0;				// Set PB0 to Analog mode (0b11)
 8000f38:	4a71      	ldr	r2, [pc, #452]	; (8001100 <_Z7InitADCv+0x27c>)
 8000f3a:	4b71      	ldr	r3, [pc, #452]	; (8001100 <_Z7InitADCv+0x27c>)
 8000f3c:	681b      	ldr	r3, [r3, #0]
 8000f3e:	f043 0303 	orr.w	r3, r3, #3
 8000f42:	6013      	str	r3, [r2, #0]
	GPIOA->MODER |= GPIO_MODER_MODER1;				// Set PA1 to Analog mode (0b11)
 8000f44:	4a6f      	ldr	r2, [pc, #444]	; (8001104 <_Z7InitADCv+0x280>)
 8000f46:	4b6f      	ldr	r3, [pc, #444]	; (8001104 <_Z7InitADCv+0x280>)
 8000f48:	681b      	ldr	r3, [r3, #0]
 8000f4a:	f043 030c 	orr.w	r3, r3, #12
 8000f4e:	6013      	str	r3, [r2, #0]
	GPIOA->MODER |= GPIO_MODER_MODER2;				// Set PA2 to Analog mode (0b11)
 8000f50:	4a6c      	ldr	r2, [pc, #432]	; (8001104 <_Z7InitADCv+0x280>)
 8000f52:	4b6c      	ldr	r3, [pc, #432]	; (8001104 <_Z7InitADCv+0x280>)
 8000f54:	681b      	ldr	r3, [r3, #0]
 8000f56:	f043 0330 	orr.w	r3, r3, #48	; 0x30
 8000f5a:	6013      	str	r3, [r2, #0]
	GPIOA->MODER |= GPIO_MODER_MODER3;				// Set PA3 to Analog mode (0b11)
 8000f5c:	4a69      	ldr	r2, [pc, #420]	; (8001104 <_Z7InitADCv+0x280>)
 8000f5e:	4b69      	ldr	r3, [pc, #420]	; (8001104 <_Z7InitADCv+0x280>)
 8000f60:	681b      	ldr	r3, [r3, #0]
 8000f62:	f043 03c0 	orr.w	r3, r3, #192	; 0xc0
 8000f66:	6013      	str	r3, [r2, #0]
	GPIOC->MODER |= GPIO_MODER_MODER0;				// Set PC0 to Analog mode (0b11)
 8000f68:	4a67      	ldr	r2, [pc, #412]	; (8001108 <_Z7InitADCv+0x284>)
 8000f6a:	4b67      	ldr	r3, [pc, #412]	; (8001108 <_Z7InitADCv+0x284>)
 8000f6c:	681b      	ldr	r3, [r3, #0]
 8000f6e:	f043 0303 	orr.w	r3, r3, #3
 8000f72:	6013      	str	r3, [r2, #0]

	ADC2->CR1 |= ADC_CR1_SCAN;						// Activate scan mode
 8000f74:	4a65      	ldr	r2, [pc, #404]	; (800110c <_Z7InitADCv+0x288>)
 8000f76:	4b65      	ldr	r3, [pc, #404]	; (800110c <_Z7InitADCv+0x288>)
 8000f78:	685b      	ldr	r3, [r3, #4]
 8000f7a:	f443 7380 	orr.w	r3, r3, #256	; 0x100
 8000f7e:	6053      	str	r3, [r2, #4]
	ADC2->SQR1 = (ADC_BUFFER_LENGTH - 1) << 20;		// 4 conversions in sequence
 8000f80:	4b62      	ldr	r3, [pc, #392]	; (800110c <_Z7InitADCv+0x288>)
 8000f82:	f44f 02a0 	mov.w	r2, #5242880	; 0x500000
 8000f86:	62da      	str	r2, [r3, #44]	; 0x2c
	ADC2->SQR3 |= 8 << 0;							// Set ADC12_IN8 to first conversion in sequence
 8000f88:	4a60      	ldr	r2, [pc, #384]	; (800110c <_Z7InitADCv+0x288>)
 8000f8a:	4b60      	ldr	r3, [pc, #384]	; (800110c <_Z7InitADCv+0x288>)
 8000f8c:	6b5b      	ldr	r3, [r3, #52]	; 0x34
 8000f8e:	f043 0308 	orr.w	r3, r3, #8
 8000f92:	6353      	str	r3, [r2, #52]	; 0x34
	ADC2->SQR3 |= 9 << 5;							// Set ADC12_IN9 to second conversion in sequence
 8000f94:	4a5d      	ldr	r2, [pc, #372]	; (800110c <_Z7InitADCv+0x288>)
 8000f96:	4b5d      	ldr	r3, [pc, #372]	; (800110c <_Z7InitADCv+0x288>)
 8000f98:	6b5b      	ldr	r3, [r3, #52]	; 0x34
 8000f9a:	f443 7390 	orr.w	r3, r3, #288	; 0x120
 8000f9e:	6353      	str	r3, [r2, #52]	; 0x34
	ADC2->SQR3 |= 1 << 10;							// Set ADC123_IN1 to third conversion in sequence
 8000fa0:	4a5a      	ldr	r2, [pc, #360]	; (800110c <_Z7InitADCv+0x288>)
 8000fa2:	4b5a      	ldr	r3, [pc, #360]	; (800110c <_Z7InitADCv+0x288>)
 8000fa4:	6b5b      	ldr	r3, [r3, #52]	; 0x34
 8000fa6:	f443 6380 	orr.w	r3, r3, #1024	; 0x400
 8000faa:	6353      	str	r3, [r2, #52]	; 0x34
	ADC2->SQR3 |= 2 << 15;							// Set ADC123_IN2 to fourth conversion in sequence
 8000fac:	4a57      	ldr	r2, [pc, #348]	; (800110c <_Z7InitADCv+0x288>)
 8000fae:	4b57      	ldr	r3, [pc, #348]	; (800110c <_Z7InitADCv+0x288>)
 8000fb0:	6b5b      	ldr	r3, [r3, #52]	; 0x34
 8000fb2:	f443 3380 	orr.w	r3, r3, #65536	; 0x10000
 8000fb6:	6353      	str	r3, [r2, #52]	; 0x34
	ADC2->SQR3 |= 3 << 20;							// Set ADC123_IN3 to fifth conversion in sequence
 8000fb8:	4a54      	ldr	r2, [pc, #336]	; (800110c <_Z7InitADCv+0x288>)
 8000fba:	4b54      	ldr	r3, [pc, #336]	; (800110c <_Z7InitADCv+0x288>)
 8000fbc:	6b5b      	ldr	r3, [r3, #52]	; 0x34
 8000fbe:	f443 1340 	orr.w	r3, r3, #3145728	; 0x300000
 8000fc2:	6353      	str	r3, [r2, #52]	; 0x34
	ADC2->SQR3 |= 10 << 25;							// Set ADC123_IN10 to sixth conversion in sequence
 8000fc4:	4a51      	ldr	r2, [pc, #324]	; (800110c <_Z7InitADCv+0x288>)
 8000fc6:	4b51      	ldr	r3, [pc, #324]	; (800110c <_Z7InitADCv+0x288>)
 8000fc8:	6b5b      	ldr	r3, [r3, #52]	; 0x34
 8000fca:	f043 53a0 	orr.w	r3, r3, #335544320	; 0x14000000
 8000fce:	6353      	str	r3, [r2, #52]	; 0x34

	//	Set to 56 cycles (0b11) sampling speed (SMPR2 Left shift speed 3 x ADC_INx up to input 9; use SMPR1 from 0 for ADC_IN10+)
	ADC2->SMPR2 |= 0b11 << 24;						// Set speed of IN8
 8000fd0:	4a4e      	ldr	r2, [pc, #312]	; (800110c <_Z7InitADCv+0x288>)
 8000fd2:	4b4e      	ldr	r3, [pc, #312]	; (800110c <_Z7InitADCv+0x288>)
 8000fd4:	691b      	ldr	r3, [r3, #16]
 8000fd6:	f043 7340 	orr.w	r3, r3, #50331648	; 0x3000000
 8000fda:	6113      	str	r3, [r2, #16]
	ADC2->SMPR2 |= 0b11 << 27;						// Set speed of IN9
 8000fdc:	4a4b      	ldr	r2, [pc, #300]	; (800110c <_Z7InitADCv+0x288>)
 8000fde:	4b4b      	ldr	r3, [pc, #300]	; (800110c <_Z7InitADCv+0x288>)
 8000fe0:	691b      	ldr	r3, [r3, #16]
 8000fe2:	f043 53c0 	orr.w	r3, r3, #402653184	; 0x18000000
 8000fe6:	6113      	str	r3, [r2, #16]
	ADC2->SMPR2 |= 0b11 << 3;						// Set speed of IN1
 8000fe8:	4a48      	ldr	r2, [pc, #288]	; (800110c <_Z7InitADCv+0x288>)
 8000fea:	4b48      	ldr	r3, [pc, #288]	; (800110c <_Z7InitADCv+0x288>)
 8000fec:	691b      	ldr	r3, [r3, #16]
 8000fee:	f043 0318 	orr.w	r3, r3, #24
 8000ff2:	6113      	str	r3, [r2, #16]
	ADC2->SMPR2 |= 0b11 << 6;						// Set speed of IN2
 8000ff4:	4a45      	ldr	r2, [pc, #276]	; (800110c <_Z7InitADCv+0x288>)
 8000ff6:	4b45      	ldr	r3, [pc, #276]	; (800110c <_Z7InitADCv+0x288>)
 8000ff8:	691b      	ldr	r3, [r3, #16]
 8000ffa:	f043 03c0 	orr.w	r3, r3, #192	; 0xc0
 8000ffe:	6113      	str	r3, [r2, #16]
	ADC2->SMPR2 |= 0b11 << 9;						// Set speed of IN3
 8001000:	4a42      	ldr	r2, [pc, #264]	; (800110c <_Z7InitADCv+0x288>)
 8001002:	4b42      	ldr	r3, [pc, #264]	; (800110c <_Z7InitADCv+0x288>)
 8001004:	691b      	ldr	r3, [r3, #16]
 8001006:	f443 63c0 	orr.w	r3, r3, #1536	; 0x600
 800100a:	6113      	str	r3, [r2, #16]
	ADC2->SMPR1 |= 0b11 << 0;						// Set speed of IN10
 800100c:	4a3f      	ldr	r2, [pc, #252]	; (800110c <_Z7InitADCv+0x288>)
 800100e:	4b3f      	ldr	r3, [pc, #252]	; (800110c <_Z7InitADCv+0x288>)
 8001010:	68db      	ldr	r3, [r3, #12]
 8001012:	f043 0303 	orr.w	r3, r3, #3
 8001016:	60d3      	str	r3, [r2, #12]

	ADC2->CR2 |= ADC_CR2_EOCS;						// Trigger interrupt on end of each individual conversion
 8001018:	4a3c      	ldr	r2, [pc, #240]	; (800110c <_Z7InitADCv+0x288>)
 800101a:	4b3c      	ldr	r3, [pc, #240]	; (800110c <_Z7InitADCv+0x288>)
 800101c:	689b      	ldr	r3, [r3, #8]
 800101e:	f443 6380 	orr.w	r3, r3, #1024	; 0x400
 8001022:	6093      	str	r3, [r2, #8]
	ADC2->CR2 |= ADC_CR2_EXTEN_0;					// ADC hardware trigger 00: Trigger detection disabled; 01: Trigger detection on the rising edge; 10: Trigger detection on the falling edge; 11: Trigger detection on both the rising and falling edges
 8001024:	4a39      	ldr	r2, [pc, #228]	; (800110c <_Z7InitADCv+0x288>)
 8001026:	4b39      	ldr	r3, [pc, #228]	; (800110c <_Z7InitADCv+0x288>)
 8001028:	689b      	ldr	r3, [r3, #8]
 800102a:	f043 5380 	orr.w	r3, r3, #268435456	; 0x10000000
 800102e:	6093      	str	r3, [r2, #8]
	ADC2->CR2 |= ADC_CR2_EXTSEL_1 | ADC_CR2_EXTSEL_2;	// ADC External trigger: 0110 = TIM2_TRGO event
 8001030:	4a36      	ldr	r2, [pc, #216]	; (800110c <_Z7InitADCv+0x288>)
 8001032:	4b36      	ldr	r3, [pc, #216]	; (800110c <_Z7InitADCv+0x288>)
 8001034:	689b      	ldr	r3, [r3, #8]
 8001036:	f043 63c0 	orr.w	r3, r3, #100663296	; 0x6000000
 800103a:	6093      	str	r3, [r2, #8]

	// Enable DMA - DMA2, Channel 1, Stream 2  = ADC2 (Manual p207)
	ADC2->CR2 |= ADC_CR2_DMA;						// Enable DMA Mode on ADC2
 800103c:	4a33      	ldr	r2, [pc, #204]	; (800110c <_Z7InitADCv+0x288>)
 800103e:	4b33      	ldr	r3, [pc, #204]	; (800110c <_Z7InitADCv+0x288>)
 8001040:	689b      	ldr	r3, [r3, #8]
 8001042:	f443 7380 	orr.w	r3, r3, #256	; 0x100
 8001046:	6093      	str	r3, [r2, #8]
	ADC2->CR2 |= ADC_CR2_DDS;						// DMA requests are issued as long as data are converted and DMA=1
 8001048:	4a30      	ldr	r2, [pc, #192]	; (800110c <_Z7InitADCv+0x288>)
 800104a:	4b30      	ldr	r3, [pc, #192]	; (800110c <_Z7InitADCv+0x288>)
 800104c:	689b      	ldr	r3, [r3, #8]
 800104e:	f443 7300 	orr.w	r3, r3, #512	; 0x200
 8001052:	6093      	str	r3, [r2, #8]
	RCC->AHB1ENR |= RCC_AHB1ENR_DMA2EN;
 8001054:	4a29      	ldr	r2, [pc, #164]	; (80010fc <_Z7InitADCv+0x278>)
 8001056:	4b29      	ldr	r3, [pc, #164]	; (80010fc <_Z7InitADCv+0x278>)
 8001058:	6b1b      	ldr	r3, [r3, #48]	; 0x30
 800105a:	f443 0380 	orr.w	r3, r3, #4194304	; 0x400000
 800105e:	6313      	str	r3, [r2, #48]	; 0x30

	DMA2_Stream2->CR &= ~DMA_SxCR_DIR;				// 00 = Peripheral-to-memory
 8001060:	4a2b      	ldr	r2, [pc, #172]	; (8001110 <_Z7InitADCv+0x28c>)
 8001062:	4b2b      	ldr	r3, [pc, #172]	; (8001110 <_Z7InitADCv+0x28c>)
 8001064:	681b      	ldr	r3, [r3, #0]
 8001066:	f023 03c0 	bic.w	r3, r3, #192	; 0xc0
 800106a:	6013      	str	r3, [r2, #0]
	DMA2_Stream2->CR |= DMA_SxCR_PL_1;				// Priority: 00 = low; 01 = Medium; 10 = High; 11 = Very High
 800106c:	4a28      	ldr	r2, [pc, #160]	; (8001110 <_Z7InitADCv+0x28c>)
 800106e:	4b28      	ldr	r3, [pc, #160]	; (8001110 <_Z7InitADCv+0x28c>)
 8001070:	681b      	ldr	r3, [r3, #0]
 8001072:	f443 3300 	orr.w	r3, r3, #131072	; 0x20000
 8001076:	6013      	str	r3, [r2, #0]
	DMA2_Stream2->CR |= DMA_SxCR_PSIZE_0;			// Peripheral size: 8 bit; 01 = 16 bit; 10 = 32 bit
 8001078:	4a25      	ldr	r2, [pc, #148]	; (8001110 <_Z7InitADCv+0x28c>)
 800107a:	4b25      	ldr	r3, [pc, #148]	; (8001110 <_Z7InitADCv+0x28c>)
 800107c:	681b      	ldr	r3, [r3, #0]
 800107e:	f443 6300 	orr.w	r3, r3, #2048	; 0x800
 8001082:	6013      	str	r3, [r2, #0]
	DMA2_Stream2->CR |= DMA_SxCR_MSIZE_0;			// Memory size: 8 bit; 01 = 16 bit; 10 = 32 bit
 8001084:	4a22      	ldr	r2, [pc, #136]	; (8001110 <_Z7InitADCv+0x28c>)
 8001086:	4b22      	ldr	r3, [pc, #136]	; (8001110 <_Z7InitADCv+0x28c>)
 8001088:	681b      	ldr	r3, [r3, #0]
 800108a:	f443 5300 	orr.w	r3, r3, #8192	; 0x2000
 800108e:	6013      	str	r3, [r2, #0]
	DMA2_Stream2->CR &= ~DMA_SxCR_PINC;				// Peripheral not in increment mode
 8001090:	4a1f      	ldr	r2, [pc, #124]	; (8001110 <_Z7InitADCv+0x28c>)
 8001092:	4b1f      	ldr	r3, [pc, #124]	; (8001110 <_Z7InitADCv+0x28c>)
 8001094:	681b      	ldr	r3, [r3, #0]
 8001096:	f423 7300 	bic.w	r3, r3, #512	; 0x200
 800109a:	6013      	str	r3, [r2, #0]
	DMA2_Stream2->CR |= DMA_SxCR_MINC;				// Memory in increment mode
 800109c:	4a1c      	ldr	r2, [pc, #112]	; (8001110 <_Z7InitADCv+0x28c>)
 800109e:	4b1c      	ldr	r3, [pc, #112]	; (8001110 <_Z7InitADCv+0x28c>)
 80010a0:	681b      	ldr	r3, [r3, #0]
 80010a2:	f443 6380 	orr.w	r3, r3, #1024	; 0x400
 80010a6:	6013      	str	r3, [r2, #0]
	DMA2_Stream2->CR |= DMA_SxCR_CIRC;				// circular mode to keep refilling buffer
 80010a8:	4a19      	ldr	r2, [pc, #100]	; (8001110 <_Z7InitADCv+0x28c>)
 80010aa:	4b19      	ldr	r3, [pc, #100]	; (8001110 <_Z7InitADCv+0x28c>)
 80010ac:	681b      	ldr	r3, [r3, #0]
 80010ae:	f443 7380 	orr.w	r3, r3, #256	; 0x100
 80010b2:	6013      	str	r3, [r2, #0]
	DMA2_Stream2->CR &= ~DMA_SxCR_DIR;				// data transfer direction: 00: peripheral-to-memory; 01: memory-to-peripheral; 10: memory-to-memory
 80010b4:	4a16      	ldr	r2, [pc, #88]	; (8001110 <_Z7InitADCv+0x28c>)
 80010b6:	4b16      	ldr	r3, [pc, #88]	; (8001110 <_Z7InitADCv+0x28c>)
 80010b8:	681b      	ldr	r3, [r3, #0]
 80010ba:	f023 03c0 	bic.w	r3, r3, #192	; 0xc0
 80010be:	6013      	str	r3, [r2, #0]

	DMA2_Stream2->NDTR |= ADC_BUFFER_LENGTH;		// Number of data items to transfer (ie size of ADC buffer)
 80010c0:	4a13      	ldr	r2, [pc, #76]	; (8001110 <_Z7InitADCv+0x28c>)
 80010c2:	4b13      	ldr	r3, [pc, #76]	; (8001110 <_Z7InitADCv+0x28c>)
 80010c4:	685b      	ldr	r3, [r3, #4]
 80010c6:	f043 0306 	orr.w	r3, r3, #6
 80010ca:	6053      	str	r3, [r2, #4]
	DMA2_Stream2->PAR = (uint32_t)(&(ADC2->DR));	// Configure the peripheral data register address
 80010cc:	4b10      	ldr	r3, [pc, #64]	; (8001110 <_Z7InitADCv+0x28c>)
 80010ce:	4a11      	ldr	r2, [pc, #68]	; (8001114 <_Z7InitADCv+0x290>)
 80010d0:	609a      	str	r2, [r3, #8]
	DMA2_Stream2->M0AR = (uint32_t)(ADC_array);		// Configure the memory address (note that M1AR is used for double-buffer mode)
 80010d2:	4b0f      	ldr	r3, [pc, #60]	; (8001110 <_Z7InitADCv+0x28c>)
 80010d4:	4a10      	ldr	r2, [pc, #64]	; (8001118 <_Z7InitADCv+0x294>)
 80010d6:	60da      	str	r2, [r3, #12]
	DMA2_Stream2->CR |= DMA_SxCR_CHSEL_0;			// channel select to 1 for ADC2
 80010d8:	4a0d      	ldr	r2, [pc, #52]	; (8001110 <_Z7InitADCv+0x28c>)
 80010da:	4b0d      	ldr	r3, [pc, #52]	; (8001110 <_Z7InitADCv+0x28c>)
 80010dc:	681b      	ldr	r3, [r3, #0]
 80010de:	f043 7300 	orr.w	r3, r3, #33554432	; 0x2000000
 80010e2:	6013      	str	r3, [r2, #0]

	DMA2_Stream2->CR |= DMA_SxCR_EN;				// Enable DMA2
 80010e4:	4a0a      	ldr	r2, [pc, #40]	; (8001110 <_Z7InitADCv+0x28c>)
 80010e6:	4b0a      	ldr	r3, [pc, #40]	; (8001110 <_Z7InitADCv+0x28c>)
 80010e8:	681b      	ldr	r3, [r3, #0]
 80010ea:	f043 0301 	orr.w	r3, r3, #1
 80010ee:	6013      	str	r3, [r2, #0]
	ADC2->CR2 |= ADC_CR2_ADON;						// Activate ADC
 80010f0:	4a06      	ldr	r2, [pc, #24]	; (800110c <_Z7InitADCv+0x288>)
 80010f2:	4b06      	ldr	r3, [pc, #24]	; (800110c <_Z7InitADCv+0x288>)
 80010f4:	689b      	ldr	r3, [r3, #8]
 80010f6:	f043 0301 	orr.w	r3, r3, #1
 80010fa:	e00f      	b.n	800111c <_Z7InitADCv+0x298>
 80010fc:	40023800 	.word	0x40023800
 8001100:	40020400 	.word	0x40020400
 8001104:	40020000 	.word	0x40020000
 8001108:	40020800 	.word	0x40020800
 800110c:	40012100 	.word	0x40012100
 8001110:	40026440 	.word	0x40026440
 8001114:	4001214c 	.word	0x4001214c
 8001118:	200000bc 	.word	0x200000bc
 800111c:	6093      	str	r3, [r2, #8]

	DMA2_Stream0->CR |= DMA_SxCR_EN;				// Enable DMA2
	ADC1->CR2 |= ADC_CR2_ADON;						// Activate ADC*/


}
 800111e:	bf00      	nop
 8001120:	46bd      	mov	sp, r7
 8001122:	f85d 7b04 	ldr.w	r7, [sp], #4
 8001126:	4770      	bx	lr

08001128 <_ZSt3powff>:
  using ::pow;

#ifndef __CORRECT_ISO_CPP_MATH_H_PROTO
  inline _GLIBCXX_CONSTEXPR float
  pow(float __x, float __y)
  { return __builtin_powf(__x, __y); }
 8001128:	b580      	push	{r7, lr}
 800112a:	b082      	sub	sp, #8
 800112c:	af00      	add	r7, sp, #0
 800112e:	ed87 0a01 	vstr	s0, [r7, #4]
 8001132:	edc7 0a00 	vstr	s1, [r7]
 8001136:	edd7 0a00 	vldr	s1, [r7]
 800113a:	ed97 0a01 	vldr	s0, [r7, #4]
 800113e:	f000 fe9f 	bl	8001e80 <powf>
 8001142:	eef0 7a40 	vmov.f32	s15, s0
 8001146:	eeb0 0a67 	vmov.f32	s0, s15
 800114a:	3708      	adds	r7, #8
 800114c:	46bd      	mov	sp, r7
 800114e:	bd80      	pop	{r7, pc}

08001150 <TIM3_IRQHandler>:
uint8_t NoOfLUTs = sizeof(LUTArray) / sizeof(LUTArray[0]);

//	Use extern C to allow linker to find ISR
extern "C"
{
	void TIM3_IRQHandler(void) {
 8001150:	b480      	push	{r7}
 8001152:	af00      	add	r7, sp, #0
		// Send next samples to DAC
		if (TIM3->SR & TIM_SR_UIF) 						// if UIF flag is set
 8001154:	4b18      	ldr	r3, [pc, #96]	; (80011b8 <TIM3_IRQHandler+0x68>)
 8001156:	8a1b      	ldrh	r3, [r3, #16]
 8001158:	b29b      	uxth	r3, r3
 800115a:	f003 0301 	and.w	r3, r3, #1
 800115e:	2b00      	cmp	r3, #0
 8001160:	bf14      	ite	ne
 8001162:	2301      	movne	r3, #1
 8001164:	2300      	moveq	r3, #0
 8001166:	b2db      	uxtb	r3, r3
 8001168:	2b00      	cmp	r3, #0
 800116a:	d01f      	beq.n	80011ac <TIM3_IRQHandler+0x5c>
		{
			TIM3->SR &= ~TIM_SR_UIF;					// clear UIF flag
 800116c:	4a12      	ldr	r2, [pc, #72]	; (80011b8 <TIM3_IRQHandler+0x68>)
 800116e:	4b12      	ldr	r3, [pc, #72]	; (80011b8 <TIM3_IRQHandler+0x68>)
 8001170:	8a1b      	ldrh	r3, [r3, #16]
 8001172:	b29b      	uxth	r3, r3
 8001174:	f023 0301 	bic.w	r3, r3, #1
 8001178:	b29b      	uxth	r3, r3
 800117a:	8213      	strh	r3, [r2, #16]
			DAC->SWTRIGR |= DAC_SWTRIGR_SWTRIG1;		// Tell the DAC to output the next value
 800117c:	4a0f      	ldr	r2, [pc, #60]	; (80011bc <TIM3_IRQHandler+0x6c>)
 800117e:	4b0f      	ldr	r3, [pc, #60]	; (80011bc <TIM3_IRQHandler+0x6c>)
 8001180:	685b      	ldr	r3, [r3, #4]
 8001182:	f043 0301 	orr.w	r3, r3, #1
 8001186:	6053      	str	r3, [r2, #4]
			DAC->SWTRIGR |= DAC_SWTRIGR_SWTRIG2;		// Tell the DAC to output the next value
 8001188:	4a0c      	ldr	r2, [pc, #48]	; (80011bc <TIM3_IRQHandler+0x6c>)
 800118a:	4b0c      	ldr	r3, [pc, #48]	; (80011bc <TIM3_IRQHandler+0x6c>)
 800118c:	685b      	ldr	r3, [r3, #4]
 800118e:	f043 0302 	orr.w	r3, r3, #2
 8001192:	6053      	str	r3, [r2, #4]

			if (DacRead == 1)							// If the buffer has not been refilled increment overrun warning
 8001194:	4b0a      	ldr	r3, [pc, #40]	; (80011c0 <TIM3_IRQHandler+0x70>)
 8001196:	781b      	ldrb	r3, [r3, #0]
 8001198:	2b00      	cmp	r3, #0
 800119a:	d004      	beq.n	80011a6 <TIM3_IRQHandler+0x56>
				overrun++;
 800119c:	4b09      	ldr	r3, [pc, #36]	; (80011c4 <TIM3_IRQHandler+0x74>)
 800119e:	681b      	ldr	r3, [r3, #0]
 80011a0:	3301      	adds	r3, #1
 80011a2:	4a08      	ldr	r2, [pc, #32]	; (80011c4 <TIM3_IRQHandler+0x74>)
 80011a4:	6013      	str	r3, [r2, #0]

			DacRead = 1;
 80011a6:	4b06      	ldr	r3, [pc, #24]	; (80011c0 <TIM3_IRQHandler+0x70>)
 80011a8:	2201      	movs	r2, #1
 80011aa:	701a      	strb	r2, [r3, #0]
		}
	}
 80011ac:	bf00      	nop
 80011ae:	46bd      	mov	sp, r7
 80011b0:	f85d 7b04 	ldr.w	r7, [sp], #4
 80011b4:	4770      	bx	lr
 80011b6:	bf00      	nop
 80011b8:	40000400 	.word	0x40000400
 80011bc:	40007400 	.word	0x40007400
 80011c0:	200000c8 	.word	0x200000c8
 80011c4:	200000e4 	.word	0x200000e4

080011c8 <_Z11InterpolatePfRf>:
}


//	Interpolate between two positions (derived from a float and its rounded value) in a LUT
float Interpolate(float* LUT, float& LUTPosition)
{
 80011c8:	b480      	push	{r7}
 80011ca:	b085      	sub	sp, #20
 80011cc:	af00      	add	r7, sp, #0
 80011ce:	6078      	str	r0, [r7, #4]
 80011d0:	6039      	str	r1, [r7, #0]
	float s1 = LUT[(int) LUTPosition];
 80011d2:	683b      	ldr	r3, [r7, #0]
 80011d4:	edd3 7a00 	vldr	s15, [r3]
 80011d8:	eefd 7ae7 	vcvt.s32.f32	s15, s15
 80011dc:	ee17 3a90 	vmov	r3, s15
 80011e0:	009b      	lsls	r3, r3, #2
 80011e2:	687a      	ldr	r2, [r7, #4]
 80011e4:	4413      	add	r3, r2
 80011e6:	681b      	ldr	r3, [r3, #0]
 80011e8:	60fb      	str	r3, [r7, #12]
	float s2 = LUT[((int) LUTPosition + 1) % LUTSIZE];
 80011ea:	683b      	ldr	r3, [r7, #0]
 80011ec:	edd3 7a00 	vldr	s15, [r3]
 80011f0:	eefd 7ae7 	vcvt.s32.f32	s15, s15
 80011f4:	ee17 3a90 	vmov	r3, s15
 80011f8:	3301      	adds	r3, #1
 80011fa:	425a      	negs	r2, r3
 80011fc:	f3c3 0309 	ubfx	r3, r3, #0, #10
 8001200:	f3c2 0209 	ubfx	r2, r2, #0, #10
 8001204:	bf58      	it	pl
 8001206:	4253      	negpl	r3, r2
 8001208:	009b      	lsls	r3, r3, #2
 800120a:	687a      	ldr	r2, [r7, #4]
 800120c:	4413      	add	r3, r2
 800120e:	681b      	ldr	r3, [r3, #0]
 8001210:	60bb      	str	r3, [r7, #8]
	return s1 + ((s2 - s1) * (LUTPosition - (int)LUTPosition));
 8001212:	ed97 7a02 	vldr	s14, [r7, #8]
 8001216:	edd7 7a03 	vldr	s15, [r7, #12]
 800121a:	ee37 7a67 	vsub.f32	s14, s14, s15
 800121e:	683b      	ldr	r3, [r7, #0]
 8001220:	edd3 6a00 	vldr	s13, [r3]
 8001224:	683b      	ldr	r3, [r7, #0]
 8001226:	edd3 7a00 	vldr	s15, [r3]
 800122a:	eefd 7ae7 	vcvt.s32.f32	s15, s15
 800122e:	eef8 7ae7 	vcvt.f32.s32	s15, s15
 8001232:	ee76 7ae7 	vsub.f32	s15, s13, s15
 8001236:	ee27 7a27 	vmul.f32	s14, s14, s15
 800123a:	edd7 7a03 	vldr	s15, [r7, #12]
 800123e:	ee77 7a27 	vadd.f32	s15, s14, s15
}
 8001242:	eeb0 0a67 	vmov.f32	s0, s15
 8001246:	3714      	adds	r7, #20
 8001248:	46bd      	mov	sp, r7
 800124a:	f85d 7b04 	ldr.w	r7, [sp], #4
 800124e:	4770      	bx	lr

08001250 <_Z12GetPhaseDistPKffff>:

// Generate a phase distorted sine wave - pass LUT containing PD offsets, LUT position as a fraction of the wave cycle and a scaling factor
float GetPhaseDist(const float* PdLUT, const float LUTPosition, float scale = 1, float offset = 0){
 8001250:	b580      	push	{r7, lr}
 8001252:	b086      	sub	sp, #24
 8001254:	af00      	add	r7, sp, #0
 8001256:	60f8      	str	r0, [r7, #12]
 8001258:	ed87 0a02 	vstr	s0, [r7, #8]
 800125c:	edc7 0a01 	vstr	s1, [r7, #4]
 8001260:	ed87 1a00 	vstr	s2, [r7]
	PhaseDist = PdLUT[(int)(LUTPosition * LUTSIZE)] * LUTSIZE * scale;
 8001264:	edd7 7a02 	vldr	s15, [r7, #8]
 8001268:	ed9f 7a2c 	vldr	s14, [pc, #176]	; 800131c <_Z12GetPhaseDistPKffff+0xcc>
 800126c:	ee67 7a87 	vmul.f32	s15, s15, s14
 8001270:	eefd 7ae7 	vcvt.s32.f32	s15, s15
 8001274:	ee17 3a90 	vmov	r3, s15
 8001278:	009b      	lsls	r3, r3, #2
 800127a:	68fa      	ldr	r2, [r7, #12]
 800127c:	4413      	add	r3, r2
 800127e:	edd3 7a00 	vldr	s15, [r3]
 8001282:	ed9f 7a26 	vldr	s14, [pc, #152]	; 800131c <_Z12GetPhaseDistPKffff+0xcc>
 8001286:	ee27 7a87 	vmul.f32	s14, s15, s14
 800128a:	edd7 7a01 	vldr	s15, [r7, #4]
 800128e:	ee67 7a27 	vmul.f32	s15, s14, s15
 8001292:	4b23      	ldr	r3, [pc, #140]	; (8001320 <_Z12GetPhaseDistPKffff+0xd0>)
 8001294:	edc3 7a00 	vstr	s15, [r3]

	// Add main wave position to phase distortion position and ensure in bounds
	float Pos = ((LUTPosition + offset) * LUTSIZE) + PhaseDist;
 8001298:	ed97 7a02 	vldr	s14, [r7, #8]
 800129c:	edd7 7a00 	vldr	s15, [r7]
 80012a0:	ee77 7a27 	vadd.f32	s15, s14, s15
 80012a4:	ed9f 7a1d 	vldr	s14, [pc, #116]	; 800131c <_Z12GetPhaseDistPKffff+0xcc>
 80012a8:	ee27 7a87 	vmul.f32	s14, s15, s14
 80012ac:	4b1c      	ldr	r3, [pc, #112]	; (8001320 <_Z12GetPhaseDistPKffff+0xd0>)
 80012ae:	edd3 7a00 	vldr	s15, [r3]
 80012b2:	ee77 7a27 	vadd.f32	s15, s14, s15
 80012b6:	edc7 7a05 	vstr	s15, [r7, #20]
	while (Pos > LUTSIZE)
 80012ba:	edd7 7a05 	vldr	s15, [r7, #20]
 80012be:	ed9f 7a17 	vldr	s14, [pc, #92]	; 800131c <_Z12GetPhaseDistPKffff+0xcc>
 80012c2:	eef4 7ac7 	vcmpe.f32	s15, s14
 80012c6:	eef1 fa10 	vmrs	APSR_nzcv, fpscr
 80012ca:	dc00      	bgt.n	80012ce <_Z12GetPhaseDistPKffff+0x7e>
 80012cc:	e008      	b.n	80012e0 <_Z12GetPhaseDistPKffff+0x90>
		Pos -= LUTSIZE;
 80012ce:	edd7 7a05 	vldr	s15, [r7, #20]
 80012d2:	ed9f 7a12 	vldr	s14, [pc, #72]	; 800131c <_Z12GetPhaseDistPKffff+0xcc>
 80012d6:	ee77 7ac7 	vsub.f32	s15, s15, s14
 80012da:	edc7 7a05 	vstr	s15, [r7, #20]
	while (Pos > LUTSIZE)
 80012de:	e7ec      	b.n	80012ba <_Z12GetPhaseDistPKffff+0x6a>
	while (Pos < 0)
 80012e0:	edd7 7a05 	vldr	s15, [r7, #20]
 80012e4:	eef5 7ac0 	vcmpe.f32	s15, #0.0
 80012e8:	eef1 fa10 	vmrs	APSR_nzcv, fpscr
 80012ec:	d508      	bpl.n	8001300 <_Z12GetPhaseDistPKffff+0xb0>
		Pos =  LUTSIZE + Pos;
 80012ee:	edd7 7a05 	vldr	s15, [r7, #20]
 80012f2:	ed9f 7a0a 	vldr	s14, [pc, #40]	; 800131c <_Z12GetPhaseDistPKffff+0xcc>
 80012f6:	ee77 7a87 	vadd.f32	s15, s15, s14
 80012fa:	edc7 7a05 	vstr	s15, [r7, #20]
	while (Pos < 0)
 80012fe:	e7ef      	b.n	80012e0 <_Z12GetPhaseDistPKffff+0x90>

	return Interpolate(SineLUT, Pos); 	//	interpolate samples
 8001300:	f107 0314 	add.w	r3, r7, #20
 8001304:	4619      	mov	r1, r3
 8001306:	4807      	ldr	r0, [pc, #28]	; (8001324 <_Z12GetPhaseDistPKffff+0xd4>)
 8001308:	f7ff ff5e 	bl	80011c8 <_Z11InterpolatePfRf>
 800130c:	eef0 7a40 	vmov.f32	s15, s0
}
 8001310:	eeb0 0a67 	vmov.f32	s0, s15
 8001314:	3718      	adds	r7, #24
 8001316:	46bd      	mov	sp, r7
 8001318:	bd80      	pop	{r7, pc}
 800131a:	bf00      	nop
 800131c:	44800000 	.word	0x44800000
 8001320:	200000d0 	.word	0x200000d0
 8001324:	200000f4 	.word	0x200000f4

08001328 <_Z17GetBlendPhaseDistffff>:

// Generate a phase distorted sine wave - pass LUT containing PD offsets, LUT position as a fraction of the wave cycle and a scaling factor
float GetBlendPhaseDist(float PDBlend, const float LUTPosition, float scale = 1, float offset = 0){
 8001328:	b580      	push	{r7, lr}
 800132a:	b08c      	sub	sp, #48	; 0x30
 800132c:	af00      	add	r7, sp, #0
 800132e:	ed87 0a05 	vstr	s0, [r7, #20]
 8001332:	edc7 0a04 	vstr	s1, [r7, #16]
 8001336:	ed87 1a03 	vstr	s2, [r7, #12]
 800133a:	edc7 1a02 	vstr	s3, [r7, #8]
	// get the two PD LUTs that will be blended
	const float* PdLUTBlendA = LUTArray[(uint8_t)PDBlend];
 800133e:	edd7 7a05 	vldr	s15, [r7, #20]
 8001342:	eefc 7ae7 	vcvt.u32.f32	s15, s15
 8001346:	edc7 7a01 	vstr	s15, [r7, #4]
 800134a:	793b      	ldrb	r3, [r7, #4]
 800134c:	b2db      	uxtb	r3, r3
 800134e:	461a      	mov	r2, r3
 8001350:	4b5b      	ldr	r3, [pc, #364]	; (80014c0 <_Z17GetBlendPhaseDistffff+0x198>)
 8001352:	f853 3022 	ldr.w	r3, [r3, r2, lsl #2]
 8001356:	62fb      	str	r3, [r7, #44]	; 0x2c
	const float* PdLUTBlendB = LUTArray[(uint8_t)(PDBlend + 1) % NoOfLUTs];
 8001358:	edd7 7a05 	vldr	s15, [r7, #20]
 800135c:	eeb7 7a00 	vmov.f32	s14, #112	; 0x3f800000  1.0
 8001360:	ee77 7a87 	vadd.f32	s15, s15, s14
 8001364:	eefc 7ae7 	vcvt.u32.f32	s15, s15
 8001368:	edc7 7a01 	vstr	s15, [r7, #4]
 800136c:	793b      	ldrb	r3, [r7, #4]
 800136e:	b2db      	uxtb	r3, r3
 8001370:	4a54      	ldr	r2, [pc, #336]	; (80014c4 <_Z17GetBlendPhaseDistffff+0x19c>)
 8001372:	7812      	ldrb	r2, [r2, #0]
 8001374:	fbb3 f1f2 	udiv	r1, r3, r2
 8001378:	fb02 f201 	mul.w	r2, r2, r1
 800137c:	1a9b      	subs	r3, r3, r2
 800137e:	b2db      	uxtb	r3, r3
 8001380:	461a      	mov	r2, r3
 8001382:	4b4f      	ldr	r3, [pc, #316]	; (80014c0 <_Z17GetBlendPhaseDistffff+0x198>)
 8001384:	f853 3022 	ldr.w	r3, [r3, r2, lsl #2]
 8001388:	62bb      	str	r3, [r7, #40]	; 0x28

	// Get the values from each LUT for the sample position
	float PhaseDistA = PdLUTBlendA[(int)(LUTPosition * LUTSIZE)] * LUTSIZE * scale;
 800138a:	edd7 7a04 	vldr	s15, [r7, #16]
 800138e:	ed9f 7a4e 	vldr	s14, [pc, #312]	; 80014c8 <_Z17GetBlendPhaseDistffff+0x1a0>
 8001392:	ee67 7a87 	vmul.f32	s15, s15, s14
 8001396:	eefd 7ae7 	vcvt.s32.f32	s15, s15
 800139a:	ee17 3a90 	vmov	r3, s15
 800139e:	009b      	lsls	r3, r3, #2
 80013a0:	6afa      	ldr	r2, [r7, #44]	; 0x2c
 80013a2:	4413      	add	r3, r2
 80013a4:	edd3 7a00 	vldr	s15, [r3]
 80013a8:	ed9f 7a47 	vldr	s14, [pc, #284]	; 80014c8 <_Z17GetBlendPhaseDistffff+0x1a0>
 80013ac:	ee27 7a87 	vmul.f32	s14, s15, s14
 80013b0:	edd7 7a03 	vldr	s15, [r7, #12]
 80013b4:	ee67 7a27 	vmul.f32	s15, s14, s15
 80013b8:	edc7 7a09 	vstr	s15, [r7, #36]	; 0x24
	float PhaseDistB = PdLUTBlendB[(int)(LUTPosition * LUTSIZE)] * LUTSIZE * scale;
 80013bc:	edd7 7a04 	vldr	s15, [r7, #16]
 80013c0:	ed9f 7a41 	vldr	s14, [pc, #260]	; 80014c8 <_Z17GetBlendPhaseDistffff+0x1a0>
 80013c4:	ee67 7a87 	vmul.f32	s15, s15, s14
 80013c8:	eefd 7ae7 	vcvt.s32.f32	s15, s15
 80013cc:	ee17 3a90 	vmov	r3, s15
 80013d0:	009b      	lsls	r3, r3, #2
 80013d2:	6aba      	ldr	r2, [r7, #40]	; 0x28
 80013d4:	4413      	add	r3, r2
 80013d6:	edd3 7a00 	vldr	s15, [r3]
 80013da:	ed9f 7a3b 	vldr	s14, [pc, #236]	; 80014c8 <_Z17GetBlendPhaseDistffff+0x1a0>
 80013de:	ee27 7a87 	vmul.f32	s14, s15, s14
 80013e2:	edd7 7a03 	vldr	s15, [r7, #12]
 80013e6:	ee67 7a27 	vmul.f32	s15, s14, s15
 80013ea:	edc7 7a08 	vstr	s15, [r7, #32]

	// Get the weighted blend of the two PD amounts
	float blend = PDBlend - (uint8_t)PDBlend;
 80013ee:	edd7 7a05 	vldr	s15, [r7, #20]
 80013f2:	eefc 7ae7 	vcvt.u32.f32	s15, s15
 80013f6:	edc7 7a01 	vstr	s15, [r7, #4]
 80013fa:	793b      	ldrb	r3, [r7, #4]
 80013fc:	b2db      	uxtb	r3, r3
 80013fe:	ee07 3a90 	vmov	s15, r3
 8001402:	eef8 7ae7 	vcvt.f32.s32	s15, s15
 8001406:	ed97 7a05 	vldr	s14, [r7, #20]
 800140a:	ee77 7a67 	vsub.f32	s15, s14, s15
 800140e:	edc7 7a07 	vstr	s15, [r7, #28]
	PhaseDist = ((1 - blend) * PhaseDistA) + (blend * PhaseDistB);
 8001412:	eeb7 7a00 	vmov.f32	s14, #112	; 0x3f800000  1.0
 8001416:	edd7 7a07 	vldr	s15, [r7, #28]
 800141a:	ee37 7a67 	vsub.f32	s14, s14, s15
 800141e:	edd7 7a09 	vldr	s15, [r7, #36]	; 0x24
 8001422:	ee27 7a27 	vmul.f32	s14, s14, s15
 8001426:	edd7 6a07 	vldr	s13, [r7, #28]
 800142a:	edd7 7a08 	vldr	s15, [r7, #32]
 800142e:	ee66 7aa7 	vmul.f32	s15, s13, s15
 8001432:	ee77 7a27 	vadd.f32	s15, s14, s15
 8001436:	4b25      	ldr	r3, [pc, #148]	; (80014cc <_Z17GetBlendPhaseDistffff+0x1a4>)
 8001438:	edc3 7a00 	vstr	s15, [r3]

	// Add main wave position to phase distortion position and ensure in bounds
	float Pos = ((LUTPosition + offset) * LUTSIZE) + PhaseDist;
 800143c:	ed97 7a04 	vldr	s14, [r7, #16]
 8001440:	edd7 7a02 	vldr	s15, [r7, #8]
 8001444:	ee77 7a27 	vadd.f32	s15, s14, s15
 8001448:	ed9f 7a1f 	vldr	s14, [pc, #124]	; 80014c8 <_Z17GetBlendPhaseDistffff+0x1a0>
 800144c:	ee27 7a87 	vmul.f32	s14, s15, s14
 8001450:	4b1e      	ldr	r3, [pc, #120]	; (80014cc <_Z17GetBlendPhaseDistffff+0x1a4>)
 8001452:	edd3 7a00 	vldr	s15, [r3]
 8001456:	ee77 7a27 	vadd.f32	s15, s14, s15
 800145a:	edc7 7a06 	vstr	s15, [r7, #24]
	while (Pos > LUTSIZE)
 800145e:	edd7 7a06 	vldr	s15, [r7, #24]
 8001462:	ed9f 7a19 	vldr	s14, [pc, #100]	; 80014c8 <_Z17GetBlendPhaseDistffff+0x1a0>
 8001466:	eef4 7ac7 	vcmpe.f32	s15, s14
 800146a:	eef1 fa10 	vmrs	APSR_nzcv, fpscr
 800146e:	dc00      	bgt.n	8001472 <_Z17GetBlendPhaseDistffff+0x14a>
 8001470:	e008      	b.n	8001484 <_Z17GetBlendPhaseDistffff+0x15c>
		Pos -= LUTSIZE;
 8001472:	edd7 7a06 	vldr	s15, [r7, #24]
 8001476:	ed9f 7a14 	vldr	s14, [pc, #80]	; 80014c8 <_Z17GetBlendPhaseDistffff+0x1a0>
 800147a:	ee77 7ac7 	vsub.f32	s15, s15, s14
 800147e:	edc7 7a06 	vstr	s15, [r7, #24]
	while (Pos > LUTSIZE)
 8001482:	e7ec      	b.n	800145e <_Z17GetBlendPhaseDistffff+0x136>
	while (Pos < 0)
 8001484:	edd7 7a06 	vldr	s15, [r7, #24]
 8001488:	eef5 7ac0 	vcmpe.f32	s15, #0.0
 800148c:	eef1 fa10 	vmrs	APSR_nzcv, fpscr
 8001490:	d508      	bpl.n	80014a4 <_Z17GetBlendPhaseDistffff+0x17c>
		Pos =  LUTSIZE + Pos;
 8001492:	edd7 7a06 	vldr	s15, [r7, #24]
 8001496:	ed9f 7a0c 	vldr	s14, [pc, #48]	; 80014c8 <_Z17GetBlendPhaseDistffff+0x1a0>
 800149a:	ee77 7a87 	vadd.f32	s15, s15, s14
 800149e:	edc7 7a06 	vstr	s15, [r7, #24]
	while (Pos < 0)
 80014a2:	e7ef      	b.n	8001484 <_Z17GetBlendPhaseDistffff+0x15c>

	return Interpolate(SineLUT, Pos); 	//	interpolate samples
 80014a4:	f107 0318 	add.w	r3, r7, #24
 80014a8:	4619      	mov	r1, r3
 80014aa:	4809      	ldr	r0, [pc, #36]	; (80014d0 <_Z17GetBlendPhaseDistffff+0x1a8>)
 80014ac:	f7ff fe8c 	bl	80011c8 <_Z11InterpolatePfRf>
 80014b0:	eef0 7a40 	vmov.f32	s15, s0
}
 80014b4:	eeb0 0a67 	vmov.f32	s0, s15
 80014b8:	3730      	adds	r7, #48	; 0x30
 80014ba:	46bd      	mov	sp, r7
 80014bc:	bd80      	pop	{r7, pc}
 80014be:	bf00      	nop
 80014c0:	2000000c 	.word	0x2000000c
 80014c4:	20000020 	.word	0x20000020
 80014c8:	44800000 	.word	0x44800000
 80014cc:	200000d0 	.word	0x200000d0
 80014d0:	200000f4 	.word	0x200000f4
 80014d4:	00000000 	.word	0x00000000

080014d8 <_Z10CreateLUTsv>:

void CreateLUTs(void)
{
 80014d8:	b590      	push	{r4, r7, lr}
 80014da:	b089      	sub	sp, #36	; 0x24
 80014dc:	af00      	add	r7, sp, #0
	// Generate pitch lookup table
	for (int p = 0; p < LUTSIZE; p++){
 80014de:	2300      	movs	r3, #0
 80014e0:	61fb      	str	r3, [r7, #28]
 80014e2:	69fb      	ldr	r3, [r7, #28]
 80014e4:	f5b3 6f80 	cmp.w	r3, #1024	; 0x400
 80014e8:	da24      	bge.n	8001534 <_Z10CreateLUTsv+0x5c>
		float power = (float)(p * 4.0f) / -583.8f;			// Reduce 584 to decrease spread
 80014ea:	69fb      	ldr	r3, [r7, #28]
 80014ec:	ee07 3a90 	vmov	s15, r3
 80014f0:	eef8 7ae7 	vcvt.f32.s32	s15, s15
 80014f4:	eeb1 7a00 	vmov.f32	s14, #16	; 0x40800000  4.0
 80014f8:	ee27 7a87 	vmul.f32	s14, s15, s14
 80014fc:	eddf 6a8c 	vldr	s13, [pc, #560]	; 8001730 <_Z10CreateLUTsv+0x258>
 8001500:	eec7 7a26 	vdiv.f32	s15, s14, s13
 8001504:	edc7 7a03 	vstr	s15, [r7, #12]
		PitchLUT[p] = 2299 * (float)std::pow(2.0f, power);	// Increase 2282 to increase pitch
 8001508:	edd7 0a03 	vldr	s1, [r7, #12]
 800150c:	eeb0 0a00 	vmov.f32	s0, #0	; 0x40000000  2.0
 8001510:	f7ff fe0a 	bl	8001128 <_ZSt3powff>
 8001514:	eeb0 7a40 	vmov.f32	s14, s0
 8001518:	eddf 7a86 	vldr	s15, [pc, #536]	; 8001734 <_Z10CreateLUTsv+0x25c>
 800151c:	ee67 7a27 	vmul.f32	s15, s14, s15
 8001520:	4a85      	ldr	r2, [pc, #532]	; (8001738 <_Z10CreateLUTsv+0x260>)
 8001522:	69fb      	ldr	r3, [r7, #28]
 8001524:	009b      	lsls	r3, r3, #2
 8001526:	4413      	add	r3, r2
 8001528:	edc3 7a00 	vstr	s15, [r3]
	for (int p = 0; p < LUTSIZE; p++){
 800152c:	69fb      	ldr	r3, [r7, #28]
 800152e:	3301      	adds	r3, #1
 8001530:	61fb      	str	r3, [r7, #28]
 8001532:	e7d6      	b.n	80014e2 <_Z10CreateLUTsv+0xa>
	}

	// Generate Sine LUT
	for (int s = 0; s < LUTSIZE; s++){
 8001534:	2300      	movs	r3, #0
 8001536:	61bb      	str	r3, [r7, #24]
 8001538:	69bb      	ldr	r3, [r7, #24]
 800153a:	f5b3 6f80 	cmp.w	r3, #1024	; 0x400
 800153e:	da32      	bge.n	80015a6 <_Z10CreateLUTsv+0xce>
		SineLUT[s] = sin(s * 2.0f * M_PI / LUTSIZE);
 8001540:	69bb      	ldr	r3, [r7, #24]
 8001542:	ee07 3a90 	vmov	s15, r3
 8001546:	eef8 7ae7 	vcvt.f32.s32	s15, s15
 800154a:	ee77 7aa7 	vadd.f32	s15, s15, s15
 800154e:	ee17 0a90 	vmov	r0, s15
 8001552:	f7fe ff9d 	bl	8000490 <__aeabi_f2d>
 8001556:	a372      	add	r3, pc, #456	; (adr r3, 8001720 <_Z10CreateLUTsv+0x248>)
 8001558:	e9d3 2300 	ldrd	r2, r3, [r3]
 800155c:	f7fe ffec 	bl	8000538 <__aeabi_dmul>
 8001560:	4603      	mov	r3, r0
 8001562:	460c      	mov	r4, r1
 8001564:	4618      	mov	r0, r3
 8001566:	4621      	mov	r1, r4
 8001568:	f04f 0200 	mov.w	r2, #0
 800156c:	4b73      	ldr	r3, [pc, #460]	; (800173c <_Z10CreateLUTsv+0x264>)
 800156e:	f7ff f90d 	bl	800078c <__aeabi_ddiv>
 8001572:	4603      	mov	r3, r0
 8001574:	460c      	mov	r4, r1
 8001576:	ec44 3b17 	vmov	d7, r3, r4
 800157a:	eeb0 0a47 	vmov.f32	s0, s14
 800157e:	eef0 0a67 	vmov.f32	s1, s15
 8001582:	f000 fc35 	bl	8001df0 <sin>
 8001586:	ec54 3b10 	vmov	r3, r4, d0
 800158a:	4618      	mov	r0, r3
 800158c:	4621      	mov	r1, r4
 800158e:	f7ff fa95 	bl	8000abc <__aeabi_d2f>
 8001592:	4601      	mov	r1, r0
 8001594:	4a6a      	ldr	r2, [pc, #424]	; (8001740 <_Z10CreateLUTsv+0x268>)
 8001596:	69bb      	ldr	r3, [r7, #24]
 8001598:	009b      	lsls	r3, r3, #2
 800159a:	4413      	add	r3, r2
 800159c:	6019      	str	r1, [r3, #0]
	for (int s = 0; s < LUTSIZE; s++){
 800159e:	69bb      	ldr	r3, [r7, #24]
 80015a0:	3301      	adds	r3, #1
 80015a2:	61bb      	str	r3, [r7, #24]
 80015a4:	e7c8      	b.n	8001538 <_Z10CreateLUTsv+0x60>
	}

	// Generate Triangle LUT
	for (int s = 0; s < LUTSIZE; s++){
 80015a6:	2300      	movs	r3, #0
 80015a8:	617b      	str	r3, [r7, #20]
 80015aa:	697b      	ldr	r3, [r7, #20]
 80015ac:	f5b3 6f80 	cmp.w	r3, #1024	; 0x400
 80015b0:	da3a      	bge.n	8001628 <_Z10CreateLUTsv+0x150>
		float slope = 4 * (float)s / (float)LUTSIZE;
 80015b2:	697b      	ldr	r3, [r7, #20]
 80015b4:	ee07 3a90 	vmov	s15, r3
 80015b8:	eef8 7ae7 	vcvt.f32.s32	s15, s15
 80015bc:	eeb1 7a00 	vmov.f32	s14, #16	; 0x40800000  4.0
 80015c0:	ee27 7a87 	vmul.f32	s14, s15, s14
 80015c4:	eddf 6a5f 	vldr	s13, [pc, #380]	; 8001744 <_Z10CreateLUTsv+0x26c>
 80015c8:	eec7 7a26 	vdiv.f32	s15, s14, s13
 80015cc:	edc7 7a02 	vstr	s15, [r7, #8]

		if 			(s <= LUTSIZE / 4)		{	TriLUT[s] = slope;
 80015d0:	697b      	ldr	r3, [r7, #20]
 80015d2:	f5b3 7f80 	cmp.w	r3, #256	; 0x100
 80015d6:	dc06      	bgt.n	80015e6 <_Z10CreateLUTsv+0x10e>
 80015d8:	4a5b      	ldr	r2, [pc, #364]	; (8001748 <_Z10CreateLUTsv+0x270>)
 80015da:	697b      	ldr	r3, [r7, #20]
 80015dc:	009b      	lsls	r3, r3, #2
 80015de:	4413      	add	r3, r2
 80015e0:	68ba      	ldr	r2, [r7, #8]
 80015e2:	601a      	str	r2, [r3, #0]
 80015e4:	e01c      	b.n	8001620 <_Z10CreateLUTsv+0x148>
		} else if 	(s <= 3 * LUTSIZE / 4)	{	TriLUT[s] = 2.0f - slope;
 80015e6:	697b      	ldr	r3, [r7, #20]
 80015e8:	f5b3 7f40 	cmp.w	r3, #768	; 0x300
 80015ec:	dc0c      	bgt.n	8001608 <_Z10CreateLUTsv+0x130>
 80015ee:	eeb0 7a00 	vmov.f32	s14, #0	; 0x40000000  2.0
 80015f2:	edd7 7a02 	vldr	s15, [r7, #8]
 80015f6:	ee77 7a67 	vsub.f32	s15, s14, s15
 80015fa:	4a53      	ldr	r2, [pc, #332]	; (8001748 <_Z10CreateLUTsv+0x270>)
 80015fc:	697b      	ldr	r3, [r7, #20]
 80015fe:	009b      	lsls	r3, r3, #2
 8001600:	4413      	add	r3, r2
 8001602:	edc3 7a00 	vstr	s15, [r3]
 8001606:	e00b      	b.n	8001620 <_Z10CreateLUTsv+0x148>
		} else								{	TriLUT[s] = slope - 4;
 8001608:	edd7 7a02 	vldr	s15, [r7, #8]
 800160c:	eeb1 7a00 	vmov.f32	s14, #16	; 0x40800000  4.0
 8001610:	ee77 7ac7 	vsub.f32	s15, s15, s14
 8001614:	4a4c      	ldr	r2, [pc, #304]	; (8001748 <_Z10CreateLUTsv+0x270>)
 8001616:	697b      	ldr	r3, [r7, #20]
 8001618:	009b      	lsls	r3, r3, #2
 800161a:	4413      	add	r3, r2
 800161c:	edc3 7a00 	vstr	s15, [r3]
	for (int s = 0; s < LUTSIZE; s++){
 8001620:	697b      	ldr	r3, [r7, #20]
 8001622:	3301      	adds	r3, #1
 8001624:	617b      	str	r3, [r7, #20]
 8001626:	e7c0      	b.n	80015aa <_Z10CreateLUTsv+0xd2>
		}
	}

	// Generate curvy triangle LUT
	for (int s = 0; s < LUTSIZE; s++){
 8001628:	2300      	movs	r3, #0
 800162a:	613b      	str	r3, [r7, #16]
 800162c:	693b      	ldr	r3, [r7, #16]
 800162e:	f5b3 6f80 	cmp.w	r3, #1024	; 0x400
 8001632:	da6f      	bge.n	8001714 <_Z10CreateLUTsv+0x23c>
		float slope = cos(2.0f * M_PI * (float)s / (float)LUTSIZE);
 8001634:	693b      	ldr	r3, [r7, #16]
 8001636:	ee07 3a90 	vmov	s15, r3
 800163a:	eef8 7ae7 	vcvt.f32.s32	s15, s15
 800163e:	ee17 0a90 	vmov	r0, s15
 8001642:	f7fe ff25 	bl	8000490 <__aeabi_f2d>
 8001646:	a338      	add	r3, pc, #224	; (adr r3, 8001728 <_Z10CreateLUTsv+0x250>)
 8001648:	e9d3 2300 	ldrd	r2, r3, [r3]
 800164c:	f7fe ff74 	bl	8000538 <__aeabi_dmul>
 8001650:	4603      	mov	r3, r0
 8001652:	460c      	mov	r4, r1
 8001654:	4618      	mov	r0, r3
 8001656:	4621      	mov	r1, r4
 8001658:	f04f 0200 	mov.w	r2, #0
 800165c:	4b37      	ldr	r3, [pc, #220]	; (800173c <_Z10CreateLUTsv+0x264>)
 800165e:	f7ff f895 	bl	800078c <__aeabi_ddiv>
 8001662:	4603      	mov	r3, r0
 8001664:	460c      	mov	r4, r1
 8001666:	ec44 3b17 	vmov	d7, r3, r4
 800166a:	eeb0 0a47 	vmov.f32	s0, s14
 800166e:	eef0 0a67 	vmov.f32	s1, s15
 8001672:	f000 fb79 	bl	8001d68 <cos>
 8001676:	ec54 3b10 	vmov	r3, r4, d0
 800167a:	4618      	mov	r0, r3
 800167c:	4621      	mov	r1, r4
 800167e:	f7ff fa1d 	bl	8000abc <__aeabi_d2f>
 8001682:	4603      	mov	r3, r0
 8001684:	607b      	str	r3, [r7, #4]

		if 			(s <= LUTSIZE / 4)		{	CTriLUT[s] = -1 * (slope - 1);
 8001686:	693b      	ldr	r3, [r7, #16]
 8001688:	f5b3 7f80 	cmp.w	r3, #256	; 0x100
 800168c:	dc0e      	bgt.n	80016ac <_Z10CreateLUTsv+0x1d4>
 800168e:	edd7 7a01 	vldr	s15, [r7, #4]
 8001692:	eeb7 7a00 	vmov.f32	s14, #112	; 0x3f800000  1.0
 8001696:	ee77 7ac7 	vsub.f32	s15, s15, s14
 800169a:	eef1 7a67 	vneg.f32	s15, s15
 800169e:	4a2b      	ldr	r2, [pc, #172]	; (800174c <_Z10CreateLUTsv+0x274>)
 80016a0:	693b      	ldr	r3, [r7, #16]
 80016a2:	009b      	lsls	r3, r3, #2
 80016a4:	4413      	add	r3, r2
 80016a6:	edc3 7a00 	vstr	s15, [r3]
 80016aa:	e02f      	b.n	800170c <_Z10CreateLUTsv+0x234>
		} else if 	(s <= LUTSIZE / 2)		{	CTriLUT[s] = slope + 1;
 80016ac:	693b      	ldr	r3, [r7, #16]
 80016ae:	f5b3 7f00 	cmp.w	r3, #512	; 0x200
 80016b2:	dc0c      	bgt.n	80016ce <_Z10CreateLUTsv+0x1f6>
 80016b4:	edd7 7a01 	vldr	s15, [r7, #4]
 80016b8:	eeb7 7a00 	vmov.f32	s14, #112	; 0x3f800000  1.0
 80016bc:	ee77 7a87 	vadd.f32	s15, s15, s14
 80016c0:	4a22      	ldr	r2, [pc, #136]	; (800174c <_Z10CreateLUTsv+0x274>)
 80016c2:	693b      	ldr	r3, [r7, #16]
 80016c4:	009b      	lsls	r3, r3, #2
 80016c6:	4413      	add	r3, r2
 80016c8:	edc3 7a00 	vstr	s15, [r3]
 80016cc:	e01e      	b.n	800170c <_Z10CreateLUTsv+0x234>
		} else if 	(s <= 3 * LUTSIZE / 4)	{	CTriLUT[s] = -1 * (slope + 1);
 80016ce:	693b      	ldr	r3, [r7, #16]
 80016d0:	f5b3 7f40 	cmp.w	r3, #768	; 0x300
 80016d4:	dc0e      	bgt.n	80016f4 <_Z10CreateLUTsv+0x21c>
 80016d6:	edd7 7a01 	vldr	s15, [r7, #4]
 80016da:	eeb7 7a00 	vmov.f32	s14, #112	; 0x3f800000  1.0
 80016de:	ee77 7a87 	vadd.f32	s15, s15, s14
 80016e2:	eef1 7a67 	vneg.f32	s15, s15
 80016e6:	4a19      	ldr	r2, [pc, #100]	; (800174c <_Z10CreateLUTsv+0x274>)
 80016e8:	693b      	ldr	r3, [r7, #16]
 80016ea:	009b      	lsls	r3, r3, #2
 80016ec:	4413      	add	r3, r2
 80016ee:	edc3 7a00 	vstr	s15, [r3]
 80016f2:	e00b      	b.n	800170c <_Z10CreateLUTsv+0x234>
		} else 								{	CTriLUT[s] = slope - 1;
 80016f4:	edd7 7a01 	vldr	s15, [r7, #4]
 80016f8:	eeb7 7a00 	vmov.f32	s14, #112	; 0x3f800000  1.0
 80016fc:	ee77 7ac7 	vsub.f32	s15, s15, s14
 8001700:	4a12      	ldr	r2, [pc, #72]	; (800174c <_Z10CreateLUTsv+0x274>)
 8001702:	693b      	ldr	r3, [r7, #16]
 8001704:	009b      	lsls	r3, r3, #2
 8001706:	4413      	add	r3, r2
 8001708:	edc3 7a00 	vstr	s15, [r3]
	for (int s = 0; s < LUTSIZE; s++){
 800170c:	693b      	ldr	r3, [r7, #16]
 800170e:	3301      	adds	r3, #1
 8001710:	613b      	str	r3, [r7, #16]
 8001712:	e78b      	b.n	800162c <_Z10CreateLUTsv+0x154>
		}
	}
}
 8001714:	bf00      	nop
 8001716:	3724      	adds	r7, #36	; 0x24
 8001718:	46bd      	mov	sp, r7
 800171a:	bd90      	pop	{r4, r7, pc}
 800171c:	f3af 8000 	nop.w
 8001720:	54442d18 	.word	0x54442d18
 8001724:	400921fb 	.word	0x400921fb
 8001728:	54442d18 	.word	0x54442d18
 800172c:	401921fb 	.word	0x401921fb
 8001730:	c411f333 	.word	0xc411f333
 8001734:	450fb000 	.word	0x450fb000
 8001738:	200030f4 	.word	0x200030f4
 800173c:	40900000 	.word	0x40900000
 8001740:	200000f4 	.word	0x200000f4
 8001744:	44800000 	.word	0x44800000
 8001748:	200010f4 	.word	0x200010f4
 800174c:	200020f4 	.word	0x200020f4

08001750 <main>:


int main(void)
{
 8001750:	b580      	push	{r7, lr}
 8001752:	b086      	sub	sp, #24
 8001754:	af00      	add	r7, sp, #0
	SystemInit();				// Activates floating point coprocessor and resets clock
 8001756:	f000 fa55 	bl	8001c04 <SystemInit>
	SystemClock_Config();		// Configure the clock and PLL
 800175a:	f7ff fa43 	bl	8000be4 <_Z18SystemClock_Configv>
	SystemCoreClockUpdate();	// Update SystemCoreClock, which is the system clock frequency supplied to the SysTick timer and the processor core clock. This variable can be used by debuggers to query the frequency of the debug timer or to configure the trace clock speed.
 800175e:	f000 fa87 	bl	8001c70 <SystemCoreClockUpdate>

	CreateLUTs();				// Create pitch and sine wave look up tables
 8001762:	f7ff feb9 	bl	80014d8 <_Z10CreateLUTsv>
	InitIO();					// PC6 Button in (Ring mod)
 8001766:	f7ff fb11 	bl	8000d8c <_Z6InitIOv>
	InitDAC();					// DAC1 Output on PA4 (A2); DAC2 Output on PA5 (D13)
 800176a:	f7ff fac7 	bl	8000cfc <_Z7InitDACv>
	InitTimer();				// Sample output timer 3 - fires interrupt to trigger sample output from DAC
 800176e:	f7ff fb4b 	bl	8000e08 <_Z9InitTimerv>
	InitADC();					// ADC for reading pitch on PB0 (A3); PD CV on PB1 (A1); DAC1 Type Pot on PA1;  DAC2 Type Pot on PA2; CV1 on PA3
 8001772:	f7ff fb87 	bl	8000e84 <_Z7InitADCv>

	float oldOutput1 =  0;
 8001776:	f04f 0300 	mov.w	r3, #0
 800177a:	617b      	str	r3, [r7, #20]
	float oldOutput2 = 0;
 800177c:	f04f 0300 	mov.w	r3, #0
 8001780:	613b      	str	r3, [r7, #16]


	while (1)
	{
		// Get Pitch from ADC and smooth
		Pitch = (0.5f * Pitch) + (0.5f * ADC_PITCH);
 8001782:	4bb3      	ldr	r3, [pc, #716]	; (8001a50 <main+0x300>)
 8001784:	881b      	ldrh	r3, [r3, #0]
 8001786:	b29b      	uxth	r3, r3
 8001788:	ee07 3a90 	vmov	s15, r3
 800178c:	eef8 7ae7 	vcvt.f32.s32	s15, s15
 8001790:	eeb6 7a00 	vmov.f32	s14, #96	; 0x3f000000  0.5
 8001794:	ee27 7a87 	vmul.f32	s14, s15, s14
 8001798:	4bae      	ldr	r3, [pc, #696]	; (8001a54 <main+0x304>)
 800179a:	881b      	ldrh	r3, [r3, #0]
 800179c:	b29b      	uxth	r3, r3
 800179e:	ee07 3a90 	vmov	s15, r3
 80017a2:	eef8 7ae7 	vcvt.f32.s32	s15, s15
 80017a6:	eef6 6a00 	vmov.f32	s13, #96	; 0x3f000000  0.5
 80017aa:	ee67 7aa6 	vmul.f32	s15, s15, s13
 80017ae:	ee77 7a27 	vadd.f32	s15, s14, s15
 80017b2:	eefc 7ae7 	vcvt.u32.f32	s15, s15
 80017b6:	edc7 7a01 	vstr	s15, [r7, #4]
 80017ba:	88bb      	ldrh	r3, [r7, #4]
 80017bc:	b29a      	uxth	r2, r3
 80017be:	4ba4      	ldr	r3, [pc, #656]	; (8001a50 <main+0x300>)
 80017c0:	801a      	strh	r2, [r3, #0]

		// Analog selection of PD LUT table allows a smooth transition between LUTs for DAC1 and a stepped transition for DAC2
		SelPDLut1 = (float)ADC_OSC1TYPE * (NoOfLUTs - 1) / 4096;
 80017c2:	4ba5      	ldr	r3, [pc, #660]	; (8001a58 <main+0x308>)
 80017c4:	881b      	ldrh	r3, [r3, #0]
 80017c6:	b29b      	uxth	r3, r3
 80017c8:	ee07 3a90 	vmov	s15, r3
 80017cc:	eeb8 7a67 	vcvt.f32.u32	s14, s15
 80017d0:	4ba2      	ldr	r3, [pc, #648]	; (8001a5c <main+0x30c>)
 80017d2:	781b      	ldrb	r3, [r3, #0]
 80017d4:	3b01      	subs	r3, #1
 80017d6:	ee07 3a90 	vmov	s15, r3
 80017da:	eef8 7ae7 	vcvt.f32.s32	s15, s15
 80017de:	ee27 7a27 	vmul.f32	s14, s14, s15
 80017e2:	eddf 6a9f 	vldr	s13, [pc, #636]	; 8001a60 <main+0x310>
 80017e6:	eec7 7a26 	vdiv.f32	s15, s14, s13
 80017ea:	4b9e      	ldr	r3, [pc, #632]	; (8001a64 <main+0x314>)
 80017ec:	edc3 7a00 	vstr	s15, [r3]
		PDLut2 = ADC_OSC2TYPE * NoOfLUTs / 4096;
 80017f0:	4b9d      	ldr	r3, [pc, #628]	; (8001a68 <main+0x318>)
 80017f2:	881b      	ldrh	r3, [r3, #0]
 80017f4:	b29b      	uxth	r3, r3
 80017f6:	461a      	mov	r2, r3
 80017f8:	4b98      	ldr	r3, [pc, #608]	; (8001a5c <main+0x30c>)
 80017fa:	781b      	ldrb	r3, [r3, #0]
 80017fc:	fb03 f302 	mul.w	r3, r3, r2
 8001800:	2b00      	cmp	r3, #0
 8001802:	da01      	bge.n	8001808 <main+0xb8>
 8001804:	f603 73ff 	addw	r3, r3, #4095	; 0xfff
 8001808:	131b      	asrs	r3, r3, #12
 800180a:	b2da      	uxtb	r2, r3
 800180c:	4b97      	ldr	r3, [pc, #604]	; (8001a6c <main+0x31c>)
 800180e:	701a      	strb	r2, [r3, #0]

		// Ready for next sample
		if (DacRead)
 8001810:	4b97      	ldr	r3, [pc, #604]	; (8001a70 <main+0x320>)
 8001812:	781b      	ldrb	r3, [r3, #0]
 8001814:	2b00      	cmp	r3, #0
 8001816:	f000 8178 	beq.w	8001b0a <main+0x3ba>
		{
			// Get modulation from ADC; Currently seeing 0v as ~3000 and 5V as ~960
			PD1Scale = (float)(3800 - ADC_PD1AMT) / 800;		// Convert PD amount for OSC1
 800181a:	4b96      	ldr	r3, [pc, #600]	; (8001a74 <main+0x324>)
 800181c:	881b      	ldrh	r3, [r3, #0]
 800181e:	b29b      	uxth	r3, r3
 8001820:	f5c3 636d 	rsb	r3, r3, #3792	; 0xed0
 8001824:	3308      	adds	r3, #8
 8001826:	ee07 3a90 	vmov	s15, r3
 800182a:	eeb8 7ae7 	vcvt.f32.s32	s14, s15
 800182e:	eddf 6a92 	vldr	s13, [pc, #584]	; 8001a78 <main+0x328>
 8001832:	eec7 7a26 	vdiv.f32	s15, s14, s13
 8001836:	4b91      	ldr	r3, [pc, #580]	; (8001a7c <main+0x32c>)
 8001838:	edc3 7a00 	vstr	s15, [r3]
			PD2Scale = (float)(4096 - ADC_PD2AMT) / 800;		// Convert PD amount for OSC2
 800183c:	4b90      	ldr	r3, [pc, #576]	; (8001a80 <main+0x330>)
 800183e:	881b      	ldrh	r3, [r3, #0]
 8001840:	b29b      	uxth	r3, r3
 8001842:	f5c3 5380 	rsb	r3, r3, #4096	; 0x1000
 8001846:	ee07 3a90 	vmov	s15, r3
 800184a:	eeb8 7ae7 	vcvt.f32.s32	s14, s15
 800184e:	eddf 6a8a 	vldr	s13, [pc, #552]	; 8001a78 <main+0x328>
 8001852:	eec7 7a26 	vdiv.f32	s15, s14, s13
 8001856:	4b8b      	ldr	r3, [pc, #556]	; (8001a84 <main+0x334>)
 8001858:	edc3 7a00 	vstr	s15, [r3]
			if (ADC_VCA > 4070)	VCALevel = 0;									//	 Filter out very low level VCA signals
 800185c:	4b8a      	ldr	r3, [pc, #552]	; (8001a88 <main+0x338>)
 800185e:	881b      	ldrh	r3, [r3, #0]
 8001860:	b29b      	uxth	r3, r3
 8001862:	461a      	mov	r2, r3
 8001864:	f640 73e6 	movw	r3, #4070	; 0xfe6
 8001868:	429a      	cmp	r2, r3
 800186a:	bfcc      	ite	gt
 800186c:	2301      	movgt	r3, #1
 800186e:	2300      	movle	r3, #0
 8001870:	b2db      	uxtb	r3, r3
 8001872:	2b00      	cmp	r3, #0
 8001874:	d004      	beq.n	8001880 <main+0x130>
 8001876:	4b85      	ldr	r3, [pc, #532]	; (8001a8c <main+0x33c>)
 8001878:	f04f 0200 	mov.w	r2, #0
 800187c:	601a      	str	r2, [r3, #0]
 800187e:	e011      	b.n	80018a4 <main+0x154>
			else				VCALevel = (4096.0f - ADC_VCA) / 4096;			// Convert ADC for VCA to float between 0 and 1
 8001880:	4b81      	ldr	r3, [pc, #516]	; (8001a88 <main+0x338>)
 8001882:	881b      	ldrh	r3, [r3, #0]
 8001884:	b29b      	uxth	r3, r3
 8001886:	ee07 3a90 	vmov	s15, r3
 800188a:	eef8 7ae7 	vcvt.f32.s32	s15, s15
 800188e:	ed9f 7a74 	vldr	s14, [pc, #464]	; 8001a60 <main+0x310>
 8001892:	ee37 7a67 	vsub.f32	s14, s14, s15
 8001896:	eddf 6a72 	vldr	s13, [pc, #456]	; 8001a60 <main+0x310>
 800189a:	eec7 7a26 	vdiv.f32	s15, s14, s13
 800189e:	4b7b      	ldr	r3, [pc, #492]	; (8001a8c <main+0x33c>)
 80018a0:	edc3 7a00 	vstr	s15, [r3]

			// Calculate output as a float from -1 to +1 checking phase distortion and phase offset as required
			float SampleOut1 = GetBlendPhaseDist(SelPDLut1, SamplePos1 / SAMPLERATE, PD1Scale, 0);
 80018a4:	4b6f      	ldr	r3, [pc, #444]	; (8001a64 <main+0x314>)
 80018a6:	edd3 6a00 	vldr	s13, [r3]
 80018aa:	4b79      	ldr	r3, [pc, #484]	; (8001a90 <main+0x340>)
 80018ac:	edd3 7a00 	vldr	s15, [r3]
 80018b0:	ed9f 7a78 	vldr	s14, [pc, #480]	; 8001a94 <main+0x344>
 80018b4:	ee87 6a87 	vdiv.f32	s12, s15, s14
 80018b8:	4b70      	ldr	r3, [pc, #448]	; (8001a7c <main+0x32c>)
 80018ba:	edd3 7a00 	vldr	s15, [r3]
 80018be:	eddf 1a76 	vldr	s3, [pc, #472]	; 8001a98 <main+0x348>
 80018c2:	eeb0 1a67 	vmov.f32	s2, s15
 80018c6:	eef0 0a46 	vmov.f32	s1, s12
 80018ca:	eeb0 0a66 	vmov.f32	s0, s13
 80018ce:	f7ff fd2b 	bl	8001328 <_Z17GetBlendPhaseDistffff>
 80018d2:	ed87 0a03 	vstr	s0, [r7, #12]
			float SampleOut2 = GetPhaseDist(LUTArray[PDLut2], SamplePos2 / SAMPLERATE, PD2Scale, 0);
 80018d6:	4b65      	ldr	r3, [pc, #404]	; (8001a6c <main+0x31c>)
 80018d8:	781b      	ldrb	r3, [r3, #0]
 80018da:	b2db      	uxtb	r3, r3
 80018dc:	461a      	mov	r2, r3
 80018de:	4b6f      	ldr	r3, [pc, #444]	; (8001a9c <main+0x34c>)
 80018e0:	f853 2022 	ldr.w	r2, [r3, r2, lsl #2]
 80018e4:	4b6e      	ldr	r3, [pc, #440]	; (8001aa0 <main+0x350>)
 80018e6:	edd3 7a00 	vldr	s15, [r3]
 80018ea:	ed9f 7a6a 	vldr	s14, [pc, #424]	; 8001a94 <main+0x344>
 80018ee:	eec7 6a87 	vdiv.f32	s13, s15, s14
 80018f2:	4b64      	ldr	r3, [pc, #400]	; (8001a84 <main+0x334>)
 80018f4:	edd3 7a00 	vldr	s15, [r3]
 80018f8:	ed9f 1a67 	vldr	s2, [pc, #412]	; 8001a98 <main+0x348>
 80018fc:	eef0 0a67 	vmov.f32	s1, s15
 8001900:	eeb0 0a66 	vmov.f32	s0, s13
 8001904:	4610      	mov	r0, r2
 8001906:	f7ff fca3 	bl	8001250 <_Z12GetPhaseDistPKffff>
 800190a:	ed87 0a02 	vstr	s0, [r7, #8]

			// Set DAC output values for when sample interrupt next fires
			if (RingModOn) {
 800190e:	4b65      	ldr	r3, [pc, #404]	; (8001aa4 <main+0x354>)
 8001910:	781b      	ldrb	r3, [r3, #0]
 8001912:	2b00      	cmp	r3, #0
 8001914:	d019      	beq.n	800194a <main+0x1fa>
				DAC->DHR12R1 = (int)((1 + (SampleOut1 * SampleOut2) * VCALevel) * 2047);		// Ring mod of 1 * 2
 8001916:	4b64      	ldr	r3, [pc, #400]	; (8001aa8 <main+0x358>)
 8001918:	ed97 7a03 	vldr	s14, [r7, #12]
 800191c:	edd7 7a02 	vldr	s15, [r7, #8]
 8001920:	ee27 7a27 	vmul.f32	s14, s14, s15
 8001924:	4a59      	ldr	r2, [pc, #356]	; (8001a8c <main+0x33c>)
 8001926:	edd2 7a00 	vldr	s15, [r2]
 800192a:	ee67 7a27 	vmul.f32	s15, s14, s15
 800192e:	eeb7 7a00 	vmov.f32	s14, #112	; 0x3f800000  1.0
 8001932:	ee77 7a87 	vadd.f32	s15, s15, s14
 8001936:	ed9f 7a5d 	vldr	s14, [pc, #372]	; 8001aac <main+0x35c>
 800193a:	ee67 7a87 	vmul.f32	s15, s15, s14
 800193e:	eefd 7ae7 	vcvt.s32.f32	s15, s15
 8001942:	ee17 2a90 	vmov	r2, s15
 8001946:	609a      	str	r2, [r3, #8]
 8001948:	e014      	b.n	8001974 <main+0x224>
				//DAC->DHR12R1 = (int)(((2 + SampleOut1 + SampleOut2) / 2) * 2047);		// Mix of 1 + 2
			} else {
				DAC->DHR12R1 = (int)((1 + SampleOut1 * VCALevel) * 2047);		// load the next sample into the DAC 1 buffer
 800194a:	4b57      	ldr	r3, [pc, #348]	; (8001aa8 <main+0x358>)
 800194c:	4a4f      	ldr	r2, [pc, #316]	; (8001a8c <main+0x33c>)
 800194e:	ed92 7a00 	vldr	s14, [r2]
 8001952:	edd7 7a03 	vldr	s15, [r7, #12]
 8001956:	ee67 7a27 	vmul.f32	s15, s14, s15
 800195a:	eeb7 7a00 	vmov.f32	s14, #112	; 0x3f800000  1.0
 800195e:	ee77 7a87 	vadd.f32	s15, s15, s14
 8001962:	ed9f 7a52 	vldr	s14, [pc, #328]	; 8001aac <main+0x35c>
 8001966:	ee67 7a87 	vmul.f32	s15, s15, s14
 800196a:	eefd 7ae7 	vcvt.s32.f32	s15, s15
 800196e:	ee17 2a90 	vmov	r2, s15
 8001972:	609a      	str	r2, [r3, #8]
			}
			DAC->DHR12R2 = (int)((1 + SampleOut2 * VCALevel) * 2047);			// load the next sample into the DAC 2 buffer
 8001974:	4b4c      	ldr	r3, [pc, #304]	; (8001aa8 <main+0x358>)
 8001976:	4a45      	ldr	r2, [pc, #276]	; (8001a8c <main+0x33c>)
 8001978:	ed92 7a00 	vldr	s14, [r2]
 800197c:	edd7 7a02 	vldr	s15, [r7, #8]
 8001980:	ee67 7a27 	vmul.f32	s15, s14, s15
 8001984:	eeb7 7a00 	vmov.f32	s14, #112	; 0x3f800000  1.0
 8001988:	ee77 7a87 	vadd.f32	s15, s15, s14
 800198c:	ed9f 7a47 	vldr	s14, [pc, #284]	; 8001aac <main+0x35c>
 8001990:	ee67 7a87 	vmul.f32	s15, s15, s14
 8001994:	eefd 7ae7 	vcvt.s32.f32	s15, s15
 8001998:	ee17 2a90 	vmov	r2, s15
 800199c:	615a      	str	r2, [r3, #20]

			DacRead = 0;
 800199e:	4b34      	ldr	r3, [pc, #208]	; (8001a70 <main+0x320>)
 80019a0:	2200      	movs	r2, #0
 80019a2:	701a      	strb	r2, [r3, #0]

			oldOutput1 = SampleOut1;
 80019a4:	68fb      	ldr	r3, [r7, #12]
 80019a6:	617b      	str	r3, [r7, #20]
			oldOutput2 = SampleOut2;
 80019a8:	68bb      	ldr	r3, [r7, #8]
 80019aa:	613b      	str	r3, [r7, #16]

			freq1 = PitchLUT[Pitch / 4];		// divide by four as there are 1024 items in DAC CV Voltage to Pitch Freq LUT and 4096 possible DAC voltage values
 80019ac:	4b28      	ldr	r3, [pc, #160]	; (8001a50 <main+0x300>)
 80019ae:	881b      	ldrh	r3, [r3, #0]
 80019b0:	b29b      	uxth	r3, r3
 80019b2:	089b      	lsrs	r3, r3, #2
 80019b4:	b29b      	uxth	r3, r3
 80019b6:	4a3e      	ldr	r2, [pc, #248]	; (8001ab0 <main+0x360>)
 80019b8:	009b      	lsls	r3, r3, #2
 80019ba:	4413      	add	r3, r2
 80019bc:	681b      	ldr	r3, [r3, #0]
 80019be:	4a3d      	ldr	r2, [pc, #244]	; (8001ab4 <main+0x364>)
 80019c0:	6013      	str	r3, [r2, #0]


			// octave down
			switch(RelPitch) {
 80019c2:	4b3d      	ldr	r3, [pc, #244]	; (8001ab8 <main+0x368>)
 80019c4:	781b      	ldrb	r3, [r3, #0]
 80019c6:	2b01      	cmp	r3, #1
 80019c8:	d008      	beq.n	80019dc <main+0x28c>
 80019ca:	2b02      	cmp	r3, #2
 80019cc:	d011      	beq.n	80019f2 <main+0x2a2>
 80019ce:	2b00      	cmp	r3, #0
 80019d0:	d118      	bne.n	8001a04 <main+0x2b4>
				case NONE: 			freq2 = freq1; 		break;
 80019d2:	4b38      	ldr	r3, [pc, #224]	; (8001ab4 <main+0x364>)
 80019d4:	681b      	ldr	r3, [r3, #0]
 80019d6:	4a39      	ldr	r2, [pc, #228]	; (8001abc <main+0x36c>)
 80019d8:	6013      	str	r3, [r2, #0]
 80019da:	e013      	b.n	8001a04 <main+0x2b4>
				case OCTAVEDOWN:	freq2 = freq1 / 2;	break;
 80019dc:	4b35      	ldr	r3, [pc, #212]	; (8001ab4 <main+0x364>)
 80019de:	ed93 7a00 	vldr	s14, [r3]
 80019e2:	eef0 6a00 	vmov.f32	s13, #0	; 0x40000000  2.0
 80019e6:	eec7 7a26 	vdiv.f32	s15, s14, s13
 80019ea:	4b34      	ldr	r3, [pc, #208]	; (8001abc <main+0x36c>)
 80019ec:	edc3 7a00 	vstr	s15, [r3]
 80019f0:	e008      	b.n	8001a04 <main+0x2b4>
				case OCTAVEUP: 		freq2 = freq1 * 2;	break;
 80019f2:	4b30      	ldr	r3, [pc, #192]	; (8001ab4 <main+0x364>)
 80019f4:	edd3 7a00 	vldr	s15, [r3]
 80019f8:	ee77 7aa7 	vadd.f32	s15, s15, s15
 80019fc:	4b2f      	ldr	r3, [pc, #188]	; (8001abc <main+0x36c>)
 80019fe:	edc3 7a00 	vstr	s15, [r3]
 8001a02:	bf00      	nop
			}

			// jump forward to the next sample position
			SamplePos1 += freq1;
 8001a04:	4b2b      	ldr	r3, [pc, #172]	; (8001ab4 <main+0x364>)
 8001a06:	edd3 7a00 	vldr	s15, [r3]
 8001a0a:	4b21      	ldr	r3, [pc, #132]	; (8001a90 <main+0x340>)
 8001a0c:	ed93 7a00 	vldr	s14, [r3]
 8001a10:	ee77 7a27 	vadd.f32	s15, s14, s15
 8001a14:	4b1e      	ldr	r3, [pc, #120]	; (8001a90 <main+0x340>)
 8001a16:	edc3 7a00 	vstr	s15, [r3]
			while (SamplePos1 >= SAMPLERATE)
 8001a1a:	4b1d      	ldr	r3, [pc, #116]	; (8001a90 <main+0x340>)
 8001a1c:	edd3 7a00 	vldr	s15, [r3]
 8001a20:	ed9f 7a1c 	vldr	s14, [pc, #112]	; 8001a94 <main+0x344>
 8001a24:	eef4 7ac7 	vcmpe.f32	s15, s14
 8001a28:	eef1 fa10 	vmrs	APSR_nzcv, fpscr
 8001a2c:	bfac      	ite	ge
 8001a2e:	2301      	movge	r3, #1
 8001a30:	2300      	movlt	r3, #0
 8001a32:	b2db      	uxtb	r3, r3
 8001a34:	2b00      	cmp	r3, #0
 8001a36:	d043      	beq.n	8001ac0 <main+0x370>
				SamplePos1-= SAMPLERATE;
 8001a38:	4b15      	ldr	r3, [pc, #84]	; (8001a90 <main+0x340>)
 8001a3a:	edd3 7a00 	vldr	s15, [r3]
 8001a3e:	ed9f 7a15 	vldr	s14, [pc, #84]	; 8001a94 <main+0x344>
 8001a42:	ee77 7ac7 	vsub.f32	s15, s15, s14
 8001a46:	4b12      	ldr	r3, [pc, #72]	; (8001a90 <main+0x340>)
 8001a48:	edc3 7a00 	vstr	s15, [r3]
			while (SamplePos1 >= SAMPLERATE)
 8001a4c:	e7e5      	b.n	8001a1a <main+0x2ca>
 8001a4e:	bf00      	nop
 8001a50:	200000cc 	.word	0x200000cc
 8001a54:	200000bc 	.word	0x200000bc
 8001a58:	200000c0 	.word	0x200000c0
 8001a5c:	20000020 	.word	0x20000020
 8001a60:	45800000 	.word	0x45800000
 8001a64:	200000e8 	.word	0x200000e8
 8001a68:	200000c2 	.word	0x200000c2
 8001a6c:	200000ec 	.word	0x200000ec
 8001a70:	200000c8 	.word	0x200000c8
 8001a74:	200000be 	.word	0x200000be
 8001a78:	44480000 	.word	0x44480000
 8001a7c:	200000dc 	.word	0x200000dc
 8001a80:	200000c4 	.word	0x200000c4
 8001a84:	200000e0 	.word	0x200000e0
 8001a88:	200000c6 	.word	0x200000c6
 8001a8c:	200000f0 	.word	0x200000f0
 8001a90:	200000d4 	.word	0x200000d4
 8001a94:	478ca000 	.word	0x478ca000
 8001a98:	00000000 	.word	0x00000000
 8001a9c:	2000000c 	.word	0x2000000c
 8001aa0:	200000d8 	.word	0x200000d8
 8001aa4:	200000c9 	.word	0x200000c9
 8001aa8:	40007400 	.word	0x40007400
 8001aac:	44ffe000 	.word	0x44ffe000
 8001ab0:	200030f4 	.word	0x200030f4
 8001ab4:	20000004 	.word	0x20000004
 8001ab8:	20000000 	.word	0x20000000
 8001abc:	20000008 	.word	0x20000008

			SamplePos2 += freq2;
 8001ac0:	4b33      	ldr	r3, [pc, #204]	; (8001b90 <main+0x440>)
 8001ac2:	edd3 7a00 	vldr	s15, [r3]
 8001ac6:	4b33      	ldr	r3, [pc, #204]	; (8001b94 <main+0x444>)
 8001ac8:	ed93 7a00 	vldr	s14, [r3]
 8001acc:	ee77 7a27 	vadd.f32	s15, s14, s15
 8001ad0:	4b30      	ldr	r3, [pc, #192]	; (8001b94 <main+0x444>)
 8001ad2:	edc3 7a00 	vstr	s15, [r3]
			while (SamplePos2 >= SAMPLERATE)
 8001ad6:	4b2f      	ldr	r3, [pc, #188]	; (8001b94 <main+0x444>)
 8001ad8:	edd3 7a00 	vldr	s15, [r3]
 8001adc:	ed9f 7a2e 	vldr	s14, [pc, #184]	; 8001b98 <main+0x448>
 8001ae0:	eef4 7ac7 	vcmpe.f32	s15, s14
 8001ae4:	eef1 fa10 	vmrs	APSR_nzcv, fpscr
 8001ae8:	bfac      	ite	ge
 8001aea:	2301      	movge	r3, #1
 8001aec:	2300      	movlt	r3, #0
 8001aee:	b2db      	uxtb	r3, r3
 8001af0:	2b00      	cmp	r3, #0
 8001af2:	d00a      	beq.n	8001b0a <main+0x3ba>
				SamplePos2-= SAMPLERATE;
 8001af4:	4b27      	ldr	r3, [pc, #156]	; (8001b94 <main+0x444>)
 8001af6:	edd3 7a00 	vldr	s15, [r3]
 8001afa:	ed9f 7a27 	vldr	s14, [pc, #156]	; 8001b98 <main+0x448>
 8001afe:	ee77 7ac7 	vsub.f32	s15, s15, s14
 8001b02:	4b24      	ldr	r3, [pc, #144]	; (8001b94 <main+0x444>)
 8001b04:	edc3 7a00 	vstr	s15, [r3]
			while (SamplePos2 >= SAMPLERATE)
 8001b08:	e7e5      	b.n	8001ad6 <main+0x386>
		}

		// Toggle Ring mod when button pressed
		if (!READ_BIT(GPIOC->IDR, GPIO_IDR_IDR_6)) {
 8001b0a:	4b24      	ldr	r3, [pc, #144]	; (8001b9c <main+0x44c>)
 8001b0c:	691b      	ldr	r3, [r3, #16]
 8001b0e:	f003 0340 	and.w	r3, r3, #64	; 0x40
 8001b12:	2b00      	cmp	r3, #0
 8001b14:	bf0c      	ite	eq
 8001b16:	2301      	moveq	r3, #1
 8001b18:	2300      	movne	r3, #0
 8001b1a:	b2db      	uxtb	r3, r3
 8001b1c:	2b00      	cmp	r3, #0
 8001b1e:	d011      	beq.n	8001b44 <main+0x3f4>
			if (!ButtonDown) {
 8001b20:	4b1f      	ldr	r3, [pc, #124]	; (8001ba0 <main+0x450>)
 8001b22:	781b      	ldrb	r3, [r3, #0]
 8001b24:	f083 0301 	eor.w	r3, r3, #1
 8001b28:	b2db      	uxtb	r3, r3
 8001b2a:	2b00      	cmp	r3, #0
 8001b2c:	d00d      	beq.n	8001b4a <main+0x3fa>
				RingModOn = !RingModOn;
 8001b2e:	4b1d      	ldr	r3, [pc, #116]	; (8001ba4 <main+0x454>)
 8001b30:	781b      	ldrb	r3, [r3, #0]
 8001b32:	f083 0301 	eor.w	r3, r3, #1
 8001b36:	b2da      	uxtb	r2, r3
 8001b38:	4b1a      	ldr	r3, [pc, #104]	; (8001ba4 <main+0x454>)
 8001b3a:	701a      	strb	r2, [r3, #0]
				ButtonDown = true;
 8001b3c:	4b18      	ldr	r3, [pc, #96]	; (8001ba0 <main+0x450>)
 8001b3e:	2201      	movs	r2, #1
 8001b40:	701a      	strb	r2, [r3, #0]
 8001b42:	e002      	b.n	8001b4a <main+0x3fa>
			}
		} else {
			ButtonDown = false;
 8001b44:	4b16      	ldr	r3, [pc, #88]	; (8001ba0 <main+0x450>)
 8001b46:	2200      	movs	r2, #0
 8001b48:	701a      	strb	r2, [r3, #0]
		}

		// Set up PB12 and PB13 for4 octave up and down switch
		if (GPIOB->IDR & GPIO_IDR_IDR_12)
 8001b4a:	4b17      	ldr	r3, [pc, #92]	; (8001ba8 <main+0x458>)
 8001b4c:	691b      	ldr	r3, [r3, #16]
 8001b4e:	f403 5380 	and.w	r3, r3, #4096	; 0x1000
 8001b52:	2b00      	cmp	r3, #0
 8001b54:	bf14      	ite	ne
 8001b56:	2301      	movne	r3, #1
 8001b58:	2300      	moveq	r3, #0
 8001b5a:	b2db      	uxtb	r3, r3
 8001b5c:	2b00      	cmp	r3, #0
 8001b5e:	d003      	beq.n	8001b68 <main+0x418>
			RelPitch = OCTAVEUP;
 8001b60:	4b12      	ldr	r3, [pc, #72]	; (8001bac <main+0x45c>)
 8001b62:	2202      	movs	r2, #2
 8001b64:	701a      	strb	r2, [r3, #0]
 8001b66:	e60c      	b.n	8001782 <main+0x32>
		else if (GPIOB->IDR & GPIO_IDR_IDR_13)
 8001b68:	4b0f      	ldr	r3, [pc, #60]	; (8001ba8 <main+0x458>)
 8001b6a:	691b      	ldr	r3, [r3, #16]
 8001b6c:	f403 5300 	and.w	r3, r3, #8192	; 0x2000
 8001b70:	2b00      	cmp	r3, #0
 8001b72:	bf14      	ite	ne
 8001b74:	2301      	movne	r3, #1
 8001b76:	2300      	moveq	r3, #0
 8001b78:	b2db      	uxtb	r3, r3
 8001b7a:	2b00      	cmp	r3, #0
 8001b7c:	d003      	beq.n	8001b86 <main+0x436>
			RelPitch = OCTAVEDOWN;
 8001b7e:	4b0b      	ldr	r3, [pc, #44]	; (8001bac <main+0x45c>)
 8001b80:	2201      	movs	r2, #1
 8001b82:	701a      	strb	r2, [r3, #0]
 8001b84:	e5fd      	b.n	8001782 <main+0x32>
		else
			RelPitch = NONE;
 8001b86:	4b09      	ldr	r3, [pc, #36]	; (8001bac <main+0x45c>)
 8001b88:	2200      	movs	r2, #0
 8001b8a:	701a      	strb	r2, [r3, #0]

	}
 8001b8c:	e5f9      	b.n	8001782 <main+0x32>
 8001b8e:	bf00      	nop
 8001b90:	20000008 	.word	0x20000008
 8001b94:	200000d8 	.word	0x200000d8
 8001b98:	478ca000 	.word	0x478ca000
 8001b9c:	40020800 	.word	0x40020800
 8001ba0:	200000ca 	.word	0x200000ca
 8001ba4:	200000c9 	.word	0x200000c9
 8001ba8:	40020400 	.word	0x40020400
 8001bac:	20000000 	.word	0x20000000

08001bb0 <Reset_Handler>:

    .section  .text.Reset_Handler
  .weak  Reset_Handler
  .type  Reset_Handler, %function
Reset_Handler:  
  ldr   sp, =_estack    /* Atollic update: set stack pointer */
 8001bb0:	f8df d034 	ldr.w	sp, [pc, #52]	; 8001be8 <LoopFillZerobss+0x14>

/* Copy the data segment initializers from flash to SRAM */  
  movs  r1, #0
 8001bb4:	2100      	movs	r1, #0
  b  LoopCopyDataInit
 8001bb6:	e003      	b.n	8001bc0 <LoopCopyDataInit>

08001bb8 <CopyDataInit>:

CopyDataInit:
  ldr  r3, =_sidata
 8001bb8:	4b0c      	ldr	r3, [pc, #48]	; (8001bec <LoopFillZerobss+0x18>)
  ldr  r3, [r3, r1]
 8001bba:	585b      	ldr	r3, [r3, r1]
  str  r3, [r0, r1]
 8001bbc:	5043      	str	r3, [r0, r1]
  adds  r1, r1, #4
 8001bbe:	3104      	adds	r1, #4

08001bc0 <LoopCopyDataInit>:
    
LoopCopyDataInit:
  ldr  r0, =_sdata
 8001bc0:	480b      	ldr	r0, [pc, #44]	; (8001bf0 <LoopFillZerobss+0x1c>)
  ldr  r3, =_edata
 8001bc2:	4b0c      	ldr	r3, [pc, #48]	; (8001bf4 <LoopFillZerobss+0x20>)
  adds  r2, r0, r1
 8001bc4:	1842      	adds	r2, r0, r1
  cmp  r2, r3
 8001bc6:	429a      	cmp	r2, r3
  bcc  CopyDataInit
 8001bc8:	d3f6      	bcc.n	8001bb8 <CopyDataInit>
  ldr  r2, =_sbss
 8001bca:	4a0b      	ldr	r2, [pc, #44]	; (8001bf8 <LoopFillZerobss+0x24>)
  b  LoopFillZerobss
 8001bcc:	e002      	b.n	8001bd4 <LoopFillZerobss>

08001bce <FillZerobss>:
/* Zero fill the bss segment. */  
FillZerobss:
  movs  r3, #0
 8001bce:	2300      	movs	r3, #0
  str  r3, [r2], #4
 8001bd0:	f842 3b04 	str.w	r3, [r2], #4

08001bd4 <LoopFillZerobss>:
    
LoopFillZerobss:
  ldr  r3, = _ebss
 8001bd4:	4b09      	ldr	r3, [pc, #36]	; (8001bfc <LoopFillZerobss+0x28>)
  cmp  r2, r3
 8001bd6:	429a      	cmp	r2, r3
  bcc  FillZerobss
 8001bd8:	d3f9      	bcc.n	8001bce <FillZerobss>

/* Call the clock system intitialization function.*/
  bl  SystemInit   
 8001bda:	f000 f813 	bl	8001c04 <SystemInit>
/* Call static constructors */
    bl __libc_init_array
 8001bde:	f001 fee5 	bl	80039ac <__libc_init_array>
/* Call the application's entry point.*/
  bl  main
 8001be2:	f7ff fdb5 	bl	8001750 <main>
  bx  lr    
 8001be6:	4770      	bx	lr
  ldr   sp, =_estack    /* Atollic update: set stack pointer */
 8001be8:	20020000 	.word	0x20020000
  ldr  r3, =_sidata
 8001bec:	08008c20 	.word	0x08008c20
  ldr  r0, =_sdata
 8001bf0:	20000000 	.word	0x20000000
  ldr  r3, =_edata
 8001bf4:	200000a0 	.word	0x200000a0
  ldr  r2, =_sbss
 8001bf8:	200000a0 	.word	0x200000a0
  ldr  r3, = _ebss
 8001bfc:	200040f4 	.word	0x200040f4

08001c00 <ADC_IRQHandler>:
 * @retval None       
*/
    .section  .text.Default_Handler,"ax",%progbits
Default_Handler:
Infinite_Loop:
  b  Infinite_Loop
 8001c00:	e7fe      	b.n	8001c00 <ADC_IRQHandler>
	...

08001c04 <SystemInit>:
  *         configuration.
  * @param  None
  * @retval None
  */
void SystemInit(void)
{
 8001c04:	b480      	push	{r7}
 8001c06:	af00      	add	r7, sp, #0
  /* FPU settings ------------------------------------------------------------*/
  #if (__FPU_PRESENT == 1) && (__FPU_USED == 1)
    SCB->CPACR |= ((3UL << 10*2)|(3UL << 11*2));  /* set CP10 and CP11 Full Access */
 8001c08:	4a16      	ldr	r2, [pc, #88]	; (8001c64 <SystemInit+0x60>)
 8001c0a:	4b16      	ldr	r3, [pc, #88]	; (8001c64 <SystemInit+0x60>)
 8001c0c:	f8d3 3088 	ldr.w	r3, [r3, #136]	; 0x88
 8001c10:	f443 0370 	orr.w	r3, r3, #15728640	; 0xf00000
 8001c14:	f8c2 3088 	str.w	r3, [r2, #136]	; 0x88
  #endif
  /* Reset the RCC clock configuration to the default reset state ------------*/
  /* Set HSION bit */
  RCC->CR |= (uint32_t)0x00000001;
 8001c18:	4a13      	ldr	r2, [pc, #76]	; (8001c68 <SystemInit+0x64>)
 8001c1a:	4b13      	ldr	r3, [pc, #76]	; (8001c68 <SystemInit+0x64>)
 8001c1c:	681b      	ldr	r3, [r3, #0]
 8001c1e:	f043 0301 	orr.w	r3, r3, #1
 8001c22:	6013      	str	r3, [r2, #0]

  /* Reset CFGR register */
  RCC->CFGR = 0x00000000;
 8001c24:	4b10      	ldr	r3, [pc, #64]	; (8001c68 <SystemInit+0x64>)
 8001c26:	2200      	movs	r2, #0
 8001c28:	609a      	str	r2, [r3, #8]

  /* Reset HSEON, CSSON and PLLON bits */
  RCC->CR &= (uint32_t)0xFEF6FFFF;
 8001c2a:	4a0f      	ldr	r2, [pc, #60]	; (8001c68 <SystemInit+0x64>)
 8001c2c:	4b0e      	ldr	r3, [pc, #56]	; (8001c68 <SystemInit+0x64>)
 8001c2e:	681b      	ldr	r3, [r3, #0]
 8001c30:	f023 7384 	bic.w	r3, r3, #17301504	; 0x1080000
 8001c34:	f423 3380 	bic.w	r3, r3, #65536	; 0x10000
 8001c38:	6013      	str	r3, [r2, #0]

  /* Reset PLLCFGR register */
  RCC->PLLCFGR = 0x24003010;
 8001c3a:	4b0b      	ldr	r3, [pc, #44]	; (8001c68 <SystemInit+0x64>)
 8001c3c:	4a0b      	ldr	r2, [pc, #44]	; (8001c6c <SystemInit+0x68>)
 8001c3e:	605a      	str	r2, [r3, #4]

  /* Reset HSEBYP bit */
  RCC->CR &= (uint32_t)0xFFFBFFFF;
 8001c40:	4a09      	ldr	r2, [pc, #36]	; (8001c68 <SystemInit+0x64>)
 8001c42:	4b09      	ldr	r3, [pc, #36]	; (8001c68 <SystemInit+0x64>)
 8001c44:	681b      	ldr	r3, [r3, #0]
 8001c46:	f423 2380 	bic.w	r3, r3, #262144	; 0x40000
 8001c4a:	6013      	str	r3, [r2, #0]

  /* Disable all interrupts */
  RCC->CIR = 0x00000000;
 8001c4c:	4b06      	ldr	r3, [pc, #24]	; (8001c68 <SystemInit+0x64>)
 8001c4e:	2200      	movs	r2, #0
 8001c50:	60da      	str	r2, [r3, #12]

  /* Configure the Vector Table location add offset address ------------------*/
#ifdef VECT_TAB_SRAM
  SCB->VTOR = SRAM_BASE | VECT_TAB_OFFSET; /* Vector Table Relocation in Internal SRAM */
#else
  SCB->VTOR = FLASH_BASE | VECT_TAB_OFFSET; /* Vector Table Relocation in Internal FLASH */
 8001c52:	4b04      	ldr	r3, [pc, #16]	; (8001c64 <SystemInit+0x60>)
 8001c54:	f04f 6200 	mov.w	r2, #134217728	; 0x8000000
 8001c58:	609a      	str	r2, [r3, #8]
#endif
}
 8001c5a:	bf00      	nop
 8001c5c:	46bd      	mov	sp, r7
 8001c5e:	f85d 7b04 	ldr.w	r7, [sp], #4
 8001c62:	4770      	bx	lr
 8001c64:	e000ed00 	.word	0xe000ed00
 8001c68:	40023800 	.word	0x40023800
 8001c6c:	24003010 	.word	0x24003010

08001c70 <SystemCoreClockUpdate>:
  *     
  * @param  None
  * @retval None
  */
void SystemCoreClockUpdate(void)
{
 8001c70:	b480      	push	{r7}
 8001c72:	b087      	sub	sp, #28
 8001c74:	af00      	add	r7, sp, #0
  uint32_t tmp = 0, pllvco = 0, pllp = 2, pllsource = 0, pllm = 2;
 8001c76:	2300      	movs	r3, #0
 8001c78:	613b      	str	r3, [r7, #16]
 8001c7a:	2300      	movs	r3, #0
 8001c7c:	617b      	str	r3, [r7, #20]
 8001c7e:	2302      	movs	r3, #2
 8001c80:	60fb      	str	r3, [r7, #12]
 8001c82:	2300      	movs	r3, #0
 8001c84:	60bb      	str	r3, [r7, #8]
 8001c86:	2302      	movs	r3, #2
 8001c88:	607b      	str	r3, [r7, #4]
  
  /* Get SYSCLK source -------------------------------------------------------*/
  tmp = RCC->CFGR & RCC_CFGR_SWS;
 8001c8a:	4b32      	ldr	r3, [pc, #200]	; (8001d54 <SystemCoreClockUpdate+0xe4>)
 8001c8c:	689b      	ldr	r3, [r3, #8]
 8001c8e:	f003 030c 	and.w	r3, r3, #12
 8001c92:	613b      	str	r3, [r7, #16]

  switch (tmp)
 8001c94:	693b      	ldr	r3, [r7, #16]
 8001c96:	2b04      	cmp	r3, #4
 8001c98:	d007      	beq.n	8001caa <SystemCoreClockUpdate+0x3a>
 8001c9a:	2b08      	cmp	r3, #8
 8001c9c:	d009      	beq.n	8001cb2 <SystemCoreClockUpdate+0x42>
 8001c9e:	2b00      	cmp	r3, #0
 8001ca0:	d13d      	bne.n	8001d1e <SystemCoreClockUpdate+0xae>
  {
    case 0x00:  /* HSI used as system clock source */
      SystemCoreClock = HSI_VALUE;
 8001ca2:	4b2d      	ldr	r3, [pc, #180]	; (8001d58 <SystemCoreClockUpdate+0xe8>)
 8001ca4:	4a2d      	ldr	r2, [pc, #180]	; (8001d5c <SystemCoreClockUpdate+0xec>)
 8001ca6:	601a      	str	r2, [r3, #0]
      break;
 8001ca8:	e03d      	b.n	8001d26 <SystemCoreClockUpdate+0xb6>
    case 0x04:  /* HSE used as system clock source */
      SystemCoreClock = HSE_VALUE;
 8001caa:	4b2b      	ldr	r3, [pc, #172]	; (8001d58 <SystemCoreClockUpdate+0xe8>)
 8001cac:	4a2c      	ldr	r2, [pc, #176]	; (8001d60 <SystemCoreClockUpdate+0xf0>)
 8001cae:	601a      	str	r2, [r3, #0]
      break;
 8001cb0:	e039      	b.n	8001d26 <SystemCoreClockUpdate+0xb6>
    case 0x08:  /* PLL used as system clock source */

      /* PLL_VCO = (HSE_VALUE or HSI_VALUE / PLL_M) * PLL_N
         SYSCLK = PLL_VCO / PLL_P
         */    
      pllsource = (RCC->PLLCFGR & RCC_PLLCFGR_PLLSRC) >> 22;
 8001cb2:	4b28      	ldr	r3, [pc, #160]	; (8001d54 <SystemCoreClockUpdate+0xe4>)
 8001cb4:	685b      	ldr	r3, [r3, #4]
 8001cb6:	0d9b      	lsrs	r3, r3, #22
 8001cb8:	f003 0301 	and.w	r3, r3, #1
 8001cbc:	60bb      	str	r3, [r7, #8]
      pllm = RCC->PLLCFGR & RCC_PLLCFGR_PLLM;
 8001cbe:	4b25      	ldr	r3, [pc, #148]	; (8001d54 <SystemCoreClockUpdate+0xe4>)
 8001cc0:	685b      	ldr	r3, [r3, #4]
 8001cc2:	f003 033f 	and.w	r3, r3, #63	; 0x3f
 8001cc6:	607b      	str	r3, [r7, #4]
      
      if (pllsource != 0)
 8001cc8:	68bb      	ldr	r3, [r7, #8]
 8001cca:	2b00      	cmp	r3, #0
 8001ccc:	d00c      	beq.n	8001ce8 <SystemCoreClockUpdate+0x78>
      {
        /* HSE used as PLL clock source */
        pllvco = (HSE_VALUE / pllm) * ((RCC->PLLCFGR & RCC_PLLCFGR_PLLN) >> 6);
 8001cce:	4a24      	ldr	r2, [pc, #144]	; (8001d60 <SystemCoreClockUpdate+0xf0>)
 8001cd0:	687b      	ldr	r3, [r7, #4]
 8001cd2:	fbb2 f3f3 	udiv	r3, r2, r3
 8001cd6:	4a1f      	ldr	r2, [pc, #124]	; (8001d54 <SystemCoreClockUpdate+0xe4>)
 8001cd8:	6852      	ldr	r2, [r2, #4]
 8001cda:	0992      	lsrs	r2, r2, #6
 8001cdc:	f3c2 0208 	ubfx	r2, r2, #0, #9
 8001ce0:	fb02 f303 	mul.w	r3, r2, r3
 8001ce4:	617b      	str	r3, [r7, #20]
 8001ce6:	e00b      	b.n	8001d00 <SystemCoreClockUpdate+0x90>
      }
      else
      {
        /* HSI used as PLL clock source */
        pllvco = (HSI_VALUE / pllm) * ((RCC->PLLCFGR & RCC_PLLCFGR_PLLN) >> 6);
 8001ce8:	4a1c      	ldr	r2, [pc, #112]	; (8001d5c <SystemCoreClockUpdate+0xec>)
 8001cea:	687b      	ldr	r3, [r7, #4]
 8001cec:	fbb2 f3f3 	udiv	r3, r2, r3
 8001cf0:	4a18      	ldr	r2, [pc, #96]	; (8001d54 <SystemCoreClockUpdate+0xe4>)
 8001cf2:	6852      	ldr	r2, [r2, #4]
 8001cf4:	0992      	lsrs	r2, r2, #6
 8001cf6:	f3c2 0208 	ubfx	r2, r2, #0, #9
 8001cfa:	fb02 f303 	mul.w	r3, r2, r3
 8001cfe:	617b      	str	r3, [r7, #20]
      }

      pllp = (((RCC->PLLCFGR & RCC_PLLCFGR_PLLP) >>16) + 1 ) *2;
 8001d00:	4b14      	ldr	r3, [pc, #80]	; (8001d54 <SystemCoreClockUpdate+0xe4>)
 8001d02:	685b      	ldr	r3, [r3, #4]
 8001d04:	0c1b      	lsrs	r3, r3, #16
 8001d06:	f003 0303 	and.w	r3, r3, #3
 8001d0a:	3301      	adds	r3, #1
 8001d0c:	005b      	lsls	r3, r3, #1
 8001d0e:	60fb      	str	r3, [r7, #12]
      SystemCoreClock = pllvco/pllp;
 8001d10:	697a      	ldr	r2, [r7, #20]
 8001d12:	68fb      	ldr	r3, [r7, #12]
 8001d14:	fbb2 f3f3 	udiv	r3, r2, r3
 8001d18:	4a0f      	ldr	r2, [pc, #60]	; (8001d58 <SystemCoreClockUpdate+0xe8>)
 8001d1a:	6013      	str	r3, [r2, #0]
      break;
 8001d1c:	e003      	b.n	8001d26 <SystemCoreClockUpdate+0xb6>
    default:
      SystemCoreClock = HSI_VALUE;
 8001d1e:	4b0e      	ldr	r3, [pc, #56]	; (8001d58 <SystemCoreClockUpdate+0xe8>)
 8001d20:	4a0e      	ldr	r2, [pc, #56]	; (8001d5c <SystemCoreClockUpdate+0xec>)
 8001d22:	601a      	str	r2, [r3, #0]
      break;
 8001d24:	bf00      	nop
  }
  /* Compute HCLK frequency --------------------------------------------------*/
  /* Get HCLK prescaler */
  tmp = AHBPrescTable[((RCC->CFGR & RCC_CFGR_HPRE) >> 4)];
 8001d26:	4b0b      	ldr	r3, [pc, #44]	; (8001d54 <SystemCoreClockUpdate+0xe4>)
 8001d28:	689b      	ldr	r3, [r3, #8]
 8001d2a:	091b      	lsrs	r3, r3, #4
 8001d2c:	f003 030f 	and.w	r3, r3, #15
 8001d30:	4a0c      	ldr	r2, [pc, #48]	; (8001d64 <SystemCoreClockUpdate+0xf4>)
 8001d32:	5cd3      	ldrb	r3, [r2, r3]
 8001d34:	b2db      	uxtb	r3, r3
 8001d36:	613b      	str	r3, [r7, #16]
  /* HCLK frequency */
  SystemCoreClock >>= tmp;
 8001d38:	4b07      	ldr	r3, [pc, #28]	; (8001d58 <SystemCoreClockUpdate+0xe8>)
 8001d3a:	681a      	ldr	r2, [r3, #0]
 8001d3c:	693b      	ldr	r3, [r7, #16]
 8001d3e:	fa22 f303 	lsr.w	r3, r2, r3
 8001d42:	4a05      	ldr	r2, [pc, #20]	; (8001d58 <SystemCoreClockUpdate+0xe8>)
 8001d44:	6013      	str	r3, [r2, #0]
}
 8001d46:	bf00      	nop
 8001d48:	371c      	adds	r7, #28
 8001d4a:	46bd      	mov	sp, r7
 8001d4c:	f85d 7b04 	ldr.w	r7, [sp], #4
 8001d50:	4770      	bx	lr
 8001d52:	bf00      	nop
 8001d54:	40023800 	.word	0x40023800
 8001d58:	20000024 	.word	0x20000024
 8001d5c:	00f42400 	.word	0x00f42400
 8001d60:	007a1200 	.word	0x007a1200
 8001d64:	20000028 	.word	0x20000028

08001d68 <cos>:
 8001d68:	b51f      	push	{r0, r1, r2, r3, r4, lr}
 8001d6a:	ec51 0b10 	vmov	r0, r1, d0
 8001d6e:	4a1e      	ldr	r2, [pc, #120]	; (8001de8 <cos+0x80>)
 8001d70:	f021 4300 	bic.w	r3, r1, #2147483648	; 0x80000000
 8001d74:	4293      	cmp	r3, r2
 8001d76:	dc06      	bgt.n	8001d86 <cos+0x1e>
 8001d78:	ed9f 1b19 	vldr	d1, [pc, #100]	; 8001de0 <cos+0x78>
 8001d7c:	f000 fef8 	bl	8002b70 <__kernel_cos>
 8001d80:	ec51 0b10 	vmov	r0, r1, d0
 8001d84:	e007      	b.n	8001d96 <cos+0x2e>
 8001d86:	4a19      	ldr	r2, [pc, #100]	; (8001dec <cos+0x84>)
 8001d88:	4293      	cmp	r3, r2
 8001d8a:	dd09      	ble.n	8001da0 <cos+0x38>
 8001d8c:	ee10 2a10 	vmov	r2, s0
 8001d90:	460b      	mov	r3, r1
 8001d92:	f7fe fa1d 	bl	80001d0 <__aeabi_dsub>
 8001d96:	ec41 0b10 	vmov	d0, r0, r1
 8001d9a:	b005      	add	sp, #20
 8001d9c:	f85d fb04 	ldr.w	pc, [sp], #4
 8001da0:	4668      	mov	r0, sp
 8001da2:	f000 f9e9 	bl	8002178 <__ieee754_rem_pio2>
 8001da6:	f000 0003 	and.w	r0, r0, #3
 8001daa:	2801      	cmp	r0, #1
 8001dac:	ed9d 1b02 	vldr	d1, [sp, #8]
 8001db0:	ed9d 0b00 	vldr	d0, [sp]
 8001db4:	d007      	beq.n	8001dc6 <cos+0x5e>
 8001db6:	2802      	cmp	r0, #2
 8001db8:	d00e      	beq.n	8001dd8 <cos+0x70>
 8001dba:	2800      	cmp	r0, #0
 8001dbc:	d0de      	beq.n	8001d7c <cos+0x14>
 8001dbe:	2001      	movs	r0, #1
 8001dc0:	f001 fb0e 	bl	80033e0 <__kernel_sin>
 8001dc4:	e7dc      	b.n	8001d80 <cos+0x18>
 8001dc6:	f001 fb0b 	bl	80033e0 <__kernel_sin>
 8001dca:	ec53 2b10 	vmov	r2, r3, d0
 8001dce:	ee10 0a10 	vmov	r0, s0
 8001dd2:	f103 4100 	add.w	r1, r3, #2147483648	; 0x80000000
 8001dd6:	e7de      	b.n	8001d96 <cos+0x2e>
 8001dd8:	f000 feca 	bl	8002b70 <__kernel_cos>
 8001ddc:	e7f5      	b.n	8001dca <cos+0x62>
 8001dde:	bf00      	nop
	...
 8001de8:	3fe921fb 	.word	0x3fe921fb
 8001dec:	7fefffff 	.word	0x7fefffff

08001df0 <sin>:
 8001df0:	b51f      	push	{r0, r1, r2, r3, r4, lr}
 8001df2:	ec51 0b10 	vmov	r0, r1, d0
 8001df6:	4a20      	ldr	r2, [pc, #128]	; (8001e78 <sin+0x88>)
 8001df8:	f021 4300 	bic.w	r3, r1, #2147483648	; 0x80000000
 8001dfc:	4293      	cmp	r3, r2
 8001dfe:	dc07      	bgt.n	8001e10 <sin+0x20>
 8001e00:	ed9f 1b1b 	vldr	d1, [pc, #108]	; 8001e70 <sin+0x80>
 8001e04:	2000      	movs	r0, #0
 8001e06:	f001 faeb 	bl	80033e0 <__kernel_sin>
 8001e0a:	ec51 0b10 	vmov	r0, r1, d0
 8001e0e:	e007      	b.n	8001e20 <sin+0x30>
 8001e10:	4a1a      	ldr	r2, [pc, #104]	; (8001e7c <sin+0x8c>)
 8001e12:	4293      	cmp	r3, r2
 8001e14:	dd09      	ble.n	8001e2a <sin+0x3a>
 8001e16:	ee10 2a10 	vmov	r2, s0
 8001e1a:	460b      	mov	r3, r1
 8001e1c:	f7fe f9d8 	bl	80001d0 <__aeabi_dsub>
 8001e20:	ec41 0b10 	vmov	d0, r0, r1
 8001e24:	b005      	add	sp, #20
 8001e26:	f85d fb04 	ldr.w	pc, [sp], #4
 8001e2a:	4668      	mov	r0, sp
 8001e2c:	f000 f9a4 	bl	8002178 <__ieee754_rem_pio2>
 8001e30:	f000 0003 	and.w	r0, r0, #3
 8001e34:	2801      	cmp	r0, #1
 8001e36:	ed9d 1b02 	vldr	d1, [sp, #8]
 8001e3a:	ed9d 0b00 	vldr	d0, [sp]
 8001e3e:	d004      	beq.n	8001e4a <sin+0x5a>
 8001e40:	2802      	cmp	r0, #2
 8001e42:	d005      	beq.n	8001e50 <sin+0x60>
 8001e44:	b970      	cbnz	r0, 8001e64 <sin+0x74>
 8001e46:	2001      	movs	r0, #1
 8001e48:	e7dd      	b.n	8001e06 <sin+0x16>
 8001e4a:	f000 fe91 	bl	8002b70 <__kernel_cos>
 8001e4e:	e7dc      	b.n	8001e0a <sin+0x1a>
 8001e50:	2001      	movs	r0, #1
 8001e52:	f001 fac5 	bl	80033e0 <__kernel_sin>
 8001e56:	ec53 2b10 	vmov	r2, r3, d0
 8001e5a:	ee10 0a10 	vmov	r0, s0
 8001e5e:	f103 4100 	add.w	r1, r3, #2147483648	; 0x80000000
 8001e62:	e7dd      	b.n	8001e20 <sin+0x30>
 8001e64:	f000 fe84 	bl	8002b70 <__kernel_cos>
 8001e68:	e7f5      	b.n	8001e56 <sin+0x66>
 8001e6a:	bf00      	nop
 8001e6c:	f3af 8000 	nop.w
	...
 8001e78:	3fe921fb 	.word	0x3fe921fb
 8001e7c:	7fefffff 	.word	0x7fefffff

08001e80 <powf>:
 8001e80:	b570      	push	{r4, r5, r6, lr}
 8001e82:	ed2d 8b04 	vpush	{d8-d9}
 8001e86:	4cb5      	ldr	r4, [pc, #724]	; (800215c <powf+0x2dc>)
 8001e88:	b08a      	sub	sp, #40	; 0x28
 8001e8a:	eef0 8a40 	vmov.f32	s17, s0
 8001e8e:	eeb0 8a60 	vmov.f32	s16, s1
 8001e92:	f000 fb63 	bl	800255c <__ieee754_powf>
 8001e96:	f994 5000 	ldrsb.w	r5, [r4]
 8001e9a:	1c6b      	adds	r3, r5, #1
 8001e9c:	eeb0 9a40 	vmov.f32	s18, s0
 8001ea0:	4626      	mov	r6, r4
 8001ea2:	d05d      	beq.n	8001f60 <powf+0xe0>
 8001ea4:	eeb4 8a48 	vcmp.f32	s16, s16
 8001ea8:	eef1 fa10 	vmrs	APSR_nzcv, fpscr
 8001eac:	d658      	bvs.n	8001f60 <powf+0xe0>
 8001eae:	eef4 8a68 	vcmp.f32	s17, s17
 8001eb2:	eef1 fa10 	vmrs	APSR_nzcv, fpscr
 8001eb6:	d721      	bvc.n	8001efc <powf+0x7c>
 8001eb8:	eeb5 8a40 	vcmp.f32	s16, #0.0
 8001ebc:	eef1 fa10 	vmrs	APSR_nzcv, fpscr
 8001ec0:	d14e      	bne.n	8001f60 <powf+0xe0>
 8001ec2:	2301      	movs	r3, #1
 8001ec4:	9300      	str	r3, [sp, #0]
 8001ec6:	4ba6      	ldr	r3, [pc, #664]	; (8002160 <powf+0x2e0>)
 8001ec8:	9301      	str	r3, [sp, #4]
 8001eca:	ee18 0a90 	vmov	r0, s17
 8001ece:	2300      	movs	r3, #0
 8001ed0:	9308      	str	r3, [sp, #32]
 8001ed2:	f7fe fadd 	bl	8000490 <__aeabi_f2d>
 8001ed6:	e9cd 0102 	strd	r0, r1, [sp, #8]
 8001eda:	ee18 0a10 	vmov	r0, s16
 8001ede:	f7fe fad7 	bl	8000490 <__aeabi_f2d>
 8001ee2:	4ba0      	ldr	r3, [pc, #640]	; (8002164 <powf+0x2e4>)
 8001ee4:	2200      	movs	r2, #0
 8001ee6:	2d02      	cmp	r5, #2
 8001ee8:	e9cd 0104 	strd	r0, r1, [sp, #16]
 8001eec:	e9cd 2306 	strd	r2, r3, [sp, #24]
 8001ef0:	d030      	beq.n	8001f54 <powf+0xd4>
 8001ef2:	4668      	mov	r0, sp
 8001ef4:	f001 fbbc 	bl	8003670 <matherr>
 8001ef8:	bb30      	cbnz	r0, 8001f48 <powf+0xc8>
 8001efa:	e062      	b.n	8001fc2 <powf+0x142>
 8001efc:	eef5 8a40 	vcmp.f32	s17, #0.0
 8001f00:	eef1 fa10 	vmrs	APSR_nzcv, fpscr
 8001f04:	d162      	bne.n	8001fcc <powf+0x14c>
 8001f06:	eeb5 8a40 	vcmp.f32	s16, #0.0
 8001f0a:	eef1 fa10 	vmrs	APSR_nzcv, fpscr
 8001f0e:	d12d      	bne.n	8001f6c <powf+0xec>
 8001f10:	2301      	movs	r3, #1
 8001f12:	9300      	str	r3, [sp, #0]
 8001f14:	4b92      	ldr	r3, [pc, #584]	; (8002160 <powf+0x2e0>)
 8001f16:	9301      	str	r3, [sp, #4]
 8001f18:	ee18 0a90 	vmov	r0, s17
 8001f1c:	2300      	movs	r3, #0
 8001f1e:	9308      	str	r3, [sp, #32]
 8001f20:	f7fe fab6 	bl	8000490 <__aeabi_f2d>
 8001f24:	e9cd 0102 	strd	r0, r1, [sp, #8]
 8001f28:	ee18 0a10 	vmov	r0, s16
 8001f2c:	f7fe fab0 	bl	8000490 <__aeabi_f2d>
 8001f30:	2200      	movs	r2, #0
 8001f32:	2300      	movs	r3, #0
 8001f34:	e9cd 0104 	strd	r0, r1, [sp, #16]
 8001f38:	e9cd 2306 	strd	r2, r3, [sp, #24]
 8001f3c:	2d00      	cmp	r5, #0
 8001f3e:	d0d8      	beq.n	8001ef2 <powf+0x72>
 8001f40:	4b88      	ldr	r3, [pc, #544]	; (8002164 <powf+0x2e4>)
 8001f42:	2200      	movs	r2, #0
 8001f44:	e9cd 2306 	strd	r2, r3, [sp, #24]
 8001f48:	9b08      	ldr	r3, [sp, #32]
 8001f4a:	b11b      	cbz	r3, 8001f54 <powf+0xd4>
 8001f4c:	f001 fd28 	bl	80039a0 <__errno>
 8001f50:	9b08      	ldr	r3, [sp, #32]
 8001f52:	6003      	str	r3, [r0, #0]
 8001f54:	e9dd 0106 	ldrd	r0, r1, [sp, #24]
 8001f58:	f7fe fdb0 	bl	8000abc <__aeabi_d2f>
 8001f5c:	ee09 0a10 	vmov	s18, r0
 8001f60:	eeb0 0a49 	vmov.f32	s0, s18
 8001f64:	b00a      	add	sp, #40	; 0x28
 8001f66:	ecbd 8b04 	vpop	{d8-d9}
 8001f6a:	bd70      	pop	{r4, r5, r6, pc}
 8001f6c:	eeb0 0a48 	vmov.f32	s0, s16
 8001f70:	f001 fc8b 	bl	800388a <finitef>
 8001f74:	2800      	cmp	r0, #0
 8001f76:	d0f3      	beq.n	8001f60 <powf+0xe0>
 8001f78:	eeb5 8ac0 	vcmpe.f32	s16, #0.0
 8001f7c:	eef1 fa10 	vmrs	APSR_nzcv, fpscr
 8001f80:	d5ee      	bpl.n	8001f60 <powf+0xe0>
 8001f82:	2301      	movs	r3, #1
 8001f84:	9300      	str	r3, [sp, #0]
 8001f86:	4b76      	ldr	r3, [pc, #472]	; (8002160 <powf+0x2e0>)
 8001f88:	9301      	str	r3, [sp, #4]
 8001f8a:	ee18 0a90 	vmov	r0, s17
 8001f8e:	2300      	movs	r3, #0
 8001f90:	9308      	str	r3, [sp, #32]
 8001f92:	f7fe fa7d 	bl	8000490 <__aeabi_f2d>
 8001f96:	e9cd 0102 	strd	r0, r1, [sp, #8]
 8001f9a:	ee18 0a10 	vmov	r0, s16
 8001f9e:	f7fe fa77 	bl	8000490 <__aeabi_f2d>
 8001fa2:	f994 3000 	ldrsb.w	r3, [r4]
 8001fa6:	e9cd 0104 	strd	r0, r1, [sp, #16]
 8001faa:	b923      	cbnz	r3, 8001fb6 <powf+0x136>
 8001fac:	2200      	movs	r2, #0
 8001fae:	2300      	movs	r3, #0
 8001fb0:	e9cd 2306 	strd	r2, r3, [sp, #24]
 8001fb4:	e79d      	b.n	8001ef2 <powf+0x72>
 8001fb6:	496c      	ldr	r1, [pc, #432]	; (8002168 <powf+0x2e8>)
 8001fb8:	2000      	movs	r0, #0
 8001fba:	e9cd 0106 	strd	r0, r1, [sp, #24]
 8001fbe:	2b02      	cmp	r3, #2
 8001fc0:	d197      	bne.n	8001ef2 <powf+0x72>
 8001fc2:	f001 fced 	bl	80039a0 <__errno>
 8001fc6:	2321      	movs	r3, #33	; 0x21
 8001fc8:	6003      	str	r3, [r0, #0]
 8001fca:	e7bd      	b.n	8001f48 <powf+0xc8>
 8001fcc:	f001 fc5d 	bl	800388a <finitef>
 8001fd0:	4605      	mov	r5, r0
 8001fd2:	2800      	cmp	r0, #0
 8001fd4:	f040 8091 	bne.w	80020fa <powf+0x27a>
 8001fd8:	eeb0 0a68 	vmov.f32	s0, s17
 8001fdc:	f001 fc55 	bl	800388a <finitef>
 8001fe0:	2800      	cmp	r0, #0
 8001fe2:	f000 808a 	beq.w	80020fa <powf+0x27a>
 8001fe6:	eeb0 0a48 	vmov.f32	s0, s16
 8001fea:	f001 fc4e 	bl	800388a <finitef>
 8001fee:	2800      	cmp	r0, #0
 8001ff0:	f000 8083 	beq.w	80020fa <powf+0x27a>
 8001ff4:	eeb4 9a49 	vcmp.f32	s18, s18
 8001ff8:	eef1 fa10 	vmrs	APSR_nzcv, fpscr
 8001ffc:	f994 4000 	ldrsb.w	r4, [r4]
 8002000:	4b57      	ldr	r3, [pc, #348]	; (8002160 <powf+0x2e0>)
 8002002:	d71b      	bvc.n	800203c <powf+0x1bc>
 8002004:	2201      	movs	r2, #1
 8002006:	ee18 0a90 	vmov	r0, s17
 800200a:	e88d 000c 	stmia.w	sp, {r2, r3}
 800200e:	9508      	str	r5, [sp, #32]
 8002010:	f7fe fa3e 	bl	8000490 <__aeabi_f2d>
 8002014:	e9cd 0102 	strd	r0, r1, [sp, #8]
 8002018:	ee18 0a10 	vmov	r0, s16
 800201c:	f7fe fa38 	bl	8000490 <__aeabi_f2d>
 8002020:	2200      	movs	r2, #0
 8002022:	e9cd 0104 	strd	r0, r1, [sp, #16]
 8002026:	2300      	movs	r3, #0
 8002028:	2c00      	cmp	r4, #0
 800202a:	d0c1      	beq.n	8001fb0 <powf+0x130>
 800202c:	4610      	mov	r0, r2
 800202e:	4619      	mov	r1, r3
 8002030:	f7fe fbac 	bl	800078c <__aeabi_ddiv>
 8002034:	2c02      	cmp	r4, #2
 8002036:	e9cd 0106 	strd	r0, r1, [sp, #24]
 800203a:	e7c1      	b.n	8001fc0 <powf+0x140>
 800203c:	2203      	movs	r2, #3
 800203e:	ee18 0a90 	vmov	r0, s17
 8002042:	e88d 000c 	stmia.w	sp, {r2, r3}
 8002046:	9508      	str	r5, [sp, #32]
 8002048:	f7fe fa22 	bl	8000490 <__aeabi_f2d>
 800204c:	e9cd 0102 	strd	r0, r1, [sp, #8]
 8002050:	ee18 0a10 	vmov	r0, s16
 8002054:	f7fe fa1c 	bl	8000490 <__aeabi_f2d>
 8002058:	e9cd 0104 	strd	r0, r1, [sp, #16]
 800205c:	bb5c      	cbnz	r4, 80020b6 <powf+0x236>
 800205e:	4b43      	ldr	r3, [pc, #268]	; (800216c <powf+0x2ec>)
 8002060:	eef5 8ac0 	vcmpe.f32	s17, #0.0
 8002064:	f04f 4260 	mov.w	r2, #3758096384	; 0xe0000000
 8002068:	eef1 fa10 	vmrs	APSR_nzcv, fpscr
 800206c:	e9cd 2306 	strd	r2, r3, [sp, #24]
 8002070:	d56c      	bpl.n	800214c <powf+0x2cc>
 8002072:	eef6 7a00 	vmov.f32	s15, #96	; 0x3f000000  0.5
 8002076:	ee68 7a27 	vmul.f32	s15, s16, s15
 800207a:	ee17 0a90 	vmov	r0, s15
 800207e:	f7fe fa07 	bl	8000490 <__aeabi_f2d>
 8002082:	4604      	mov	r4, r0
 8002084:	460d      	mov	r5, r1
 8002086:	ec45 4b10 	vmov	d0, r4, r5
 800208a:	f001 faf3 	bl	8003674 <rint>
 800208e:	4620      	mov	r0, r4
 8002090:	ec53 2b10 	vmov	r2, r3, d0
 8002094:	4629      	mov	r1, r5
 8002096:	f7fe fcb7 	bl	8000a08 <__aeabi_dcmpeq>
 800209a:	b920      	cbnz	r0, 80020a6 <powf+0x226>
 800209c:	4b34      	ldr	r3, [pc, #208]	; (8002170 <powf+0x2f0>)
 800209e:	f04f 4260 	mov.w	r2, #3758096384	; 0xe0000000
 80020a2:	e9cd 2306 	strd	r2, r3, [sp, #24]
 80020a6:	f996 3000 	ldrsb.w	r3, [r6]
 80020aa:	2b02      	cmp	r3, #2
 80020ac:	d14e      	bne.n	800214c <powf+0x2cc>
 80020ae:	f001 fc77 	bl	80039a0 <__errno>
 80020b2:	2322      	movs	r3, #34	; 0x22
 80020b4:	e788      	b.n	8001fc8 <powf+0x148>
 80020b6:	4b2f      	ldr	r3, [pc, #188]	; (8002174 <powf+0x2f4>)
 80020b8:	eef5 8ac0 	vcmpe.f32	s17, #0.0
 80020bc:	2200      	movs	r2, #0
 80020be:	eef1 fa10 	vmrs	APSR_nzcv, fpscr
 80020c2:	e9cd 2306 	strd	r2, r3, [sp, #24]
 80020c6:	d5ee      	bpl.n	80020a6 <powf+0x226>
 80020c8:	eef6 7a00 	vmov.f32	s15, #96	; 0x3f000000  0.5
 80020cc:	ee68 7a27 	vmul.f32	s15, s16, s15
 80020d0:	ee17 0a90 	vmov	r0, s15
 80020d4:	f7fe f9dc 	bl	8000490 <__aeabi_f2d>
 80020d8:	4604      	mov	r4, r0
 80020da:	460d      	mov	r5, r1
 80020dc:	ec45 4b10 	vmov	d0, r4, r5
 80020e0:	f001 fac8 	bl	8003674 <rint>
 80020e4:	4620      	mov	r0, r4
 80020e6:	ec53 2b10 	vmov	r2, r3, d0
 80020ea:	4629      	mov	r1, r5
 80020ec:	f7fe fc8c 	bl	8000a08 <__aeabi_dcmpeq>
 80020f0:	2800      	cmp	r0, #0
 80020f2:	d1d8      	bne.n	80020a6 <powf+0x226>
 80020f4:	2200      	movs	r2, #0
 80020f6:	4b1c      	ldr	r3, [pc, #112]	; (8002168 <powf+0x2e8>)
 80020f8:	e7d3      	b.n	80020a2 <powf+0x222>
 80020fa:	eeb5 9a40 	vcmp.f32	s18, #0.0
 80020fe:	eef1 fa10 	vmrs	APSR_nzcv, fpscr
 8002102:	f47f af2d 	bne.w	8001f60 <powf+0xe0>
 8002106:	eeb0 0a68 	vmov.f32	s0, s17
 800210a:	f001 fbbe 	bl	800388a <finitef>
 800210e:	2800      	cmp	r0, #0
 8002110:	f43f af26 	beq.w	8001f60 <powf+0xe0>
 8002114:	eeb0 0a48 	vmov.f32	s0, s16
 8002118:	f001 fbb7 	bl	800388a <finitef>
 800211c:	2800      	cmp	r0, #0
 800211e:	f43f af1f 	beq.w	8001f60 <powf+0xe0>
 8002122:	2304      	movs	r3, #4
 8002124:	9300      	str	r3, [sp, #0]
 8002126:	4b0e      	ldr	r3, [pc, #56]	; (8002160 <powf+0x2e0>)
 8002128:	9301      	str	r3, [sp, #4]
 800212a:	ee18 0a90 	vmov	r0, s17
 800212e:	2300      	movs	r3, #0
 8002130:	9308      	str	r3, [sp, #32]
 8002132:	f7fe f9ad 	bl	8000490 <__aeabi_f2d>
 8002136:	e9cd 0102 	strd	r0, r1, [sp, #8]
 800213a:	ee18 0a10 	vmov	r0, s16
 800213e:	f7fe f9a7 	bl	8000490 <__aeabi_f2d>
 8002142:	2200      	movs	r2, #0
 8002144:	e9cd 0104 	strd	r0, r1, [sp, #16]
 8002148:	2300      	movs	r3, #0
 800214a:	e7aa      	b.n	80020a2 <powf+0x222>
 800214c:	4668      	mov	r0, sp
 800214e:	f001 fa8f 	bl	8003670 <matherr>
 8002152:	2800      	cmp	r0, #0
 8002154:	f47f aef8 	bne.w	8001f48 <powf+0xc8>
 8002158:	e7a9      	b.n	80020ae <powf+0x22e>
 800215a:	bf00      	nop
 800215c:	20000038 	.word	0x20000038
 8002160:	08008a10 	.word	0x08008a10
 8002164:	3ff00000 	.word	0x3ff00000
 8002168:	fff00000 	.word	0xfff00000
 800216c:	47efffff 	.word	0x47efffff
 8002170:	c7efffff 	.word	0xc7efffff
 8002174:	7ff00000 	.word	0x7ff00000

08002178 <__ieee754_rem_pio2>:
 8002178:	e92d 4ff0 	stmdb	sp!, {r4, r5, r6, r7, r8, r9, sl, fp, lr}
 800217c:	ec57 6b10 	vmov	r6, r7, d0
 8002180:	4bc3      	ldr	r3, [pc, #780]	; (8002490 <__ieee754_rem_pio2+0x318>)
 8002182:	b08d      	sub	sp, #52	; 0x34
 8002184:	f027 4800 	bic.w	r8, r7, #2147483648	; 0x80000000
 8002188:	4598      	cmp	r8, r3
 800218a:	4604      	mov	r4, r0
 800218c:	9704      	str	r7, [sp, #16]
 800218e:	dc07      	bgt.n	80021a0 <__ieee754_rem_pio2+0x28>
 8002190:	2200      	movs	r2, #0
 8002192:	2300      	movs	r3, #0
 8002194:	ed84 0b00 	vstr	d0, [r4]
 8002198:	e9c0 2302 	strd	r2, r3, [r0, #8]
 800219c:	2500      	movs	r5, #0
 800219e:	e027      	b.n	80021f0 <__ieee754_rem_pio2+0x78>
 80021a0:	4bbc      	ldr	r3, [pc, #752]	; (8002494 <__ieee754_rem_pio2+0x31c>)
 80021a2:	4598      	cmp	r8, r3
 80021a4:	dc75      	bgt.n	8002292 <__ieee754_rem_pio2+0x11a>
 80021a6:	9b04      	ldr	r3, [sp, #16]
 80021a8:	4dbb      	ldr	r5, [pc, #748]	; (8002498 <__ieee754_rem_pio2+0x320>)
 80021aa:	2b00      	cmp	r3, #0
 80021ac:	ee10 0a10 	vmov	r0, s0
 80021b0:	a3a9      	add	r3, pc, #676	; (adr r3, 8002458 <__ieee754_rem_pio2+0x2e0>)
 80021b2:	e9d3 2300 	ldrd	r2, r3, [r3]
 80021b6:	4639      	mov	r1, r7
 80021b8:	dd36      	ble.n	8002228 <__ieee754_rem_pio2+0xb0>
 80021ba:	f7fe f809 	bl	80001d0 <__aeabi_dsub>
 80021be:	45a8      	cmp	r8, r5
 80021c0:	4606      	mov	r6, r0
 80021c2:	460f      	mov	r7, r1
 80021c4:	d018      	beq.n	80021f8 <__ieee754_rem_pio2+0x80>
 80021c6:	a3a6      	add	r3, pc, #664	; (adr r3, 8002460 <__ieee754_rem_pio2+0x2e8>)
 80021c8:	e9d3 2300 	ldrd	r2, r3, [r3]
 80021cc:	f7fe f800 	bl	80001d0 <__aeabi_dsub>
 80021d0:	4602      	mov	r2, r0
 80021d2:	460b      	mov	r3, r1
 80021d4:	e9c4 2300 	strd	r2, r3, [r4]
 80021d8:	4630      	mov	r0, r6
 80021da:	4639      	mov	r1, r7
 80021dc:	f7fd fff8 	bl	80001d0 <__aeabi_dsub>
 80021e0:	a39f      	add	r3, pc, #636	; (adr r3, 8002460 <__ieee754_rem_pio2+0x2e8>)
 80021e2:	e9d3 2300 	ldrd	r2, r3, [r3]
 80021e6:	f7fd fff3 	bl	80001d0 <__aeabi_dsub>
 80021ea:	e9c4 0102 	strd	r0, r1, [r4, #8]
 80021ee:	2501      	movs	r5, #1
 80021f0:	4628      	mov	r0, r5
 80021f2:	b00d      	add	sp, #52	; 0x34
 80021f4:	e8bd 8ff0 	ldmia.w	sp!, {r4, r5, r6, r7, r8, r9, sl, fp, pc}
 80021f8:	a39b      	add	r3, pc, #620	; (adr r3, 8002468 <__ieee754_rem_pio2+0x2f0>)
 80021fa:	e9d3 2300 	ldrd	r2, r3, [r3]
 80021fe:	f7fd ffe7 	bl	80001d0 <__aeabi_dsub>
 8002202:	a39b      	add	r3, pc, #620	; (adr r3, 8002470 <__ieee754_rem_pio2+0x2f8>)
 8002204:	e9d3 2300 	ldrd	r2, r3, [r3]
 8002208:	4606      	mov	r6, r0
 800220a:	460f      	mov	r7, r1
 800220c:	f7fd ffe0 	bl	80001d0 <__aeabi_dsub>
 8002210:	4602      	mov	r2, r0
 8002212:	460b      	mov	r3, r1
 8002214:	e9c4 2300 	strd	r2, r3, [r4]
 8002218:	4630      	mov	r0, r6
 800221a:	4639      	mov	r1, r7
 800221c:	f7fd ffd8 	bl	80001d0 <__aeabi_dsub>
 8002220:	a393      	add	r3, pc, #588	; (adr r3, 8002470 <__ieee754_rem_pio2+0x2f8>)
 8002222:	e9d3 2300 	ldrd	r2, r3, [r3]
 8002226:	e7de      	b.n	80021e6 <__ieee754_rem_pio2+0x6e>
 8002228:	f7fd ffd4 	bl	80001d4 <__adddf3>
 800222c:	45a8      	cmp	r8, r5
 800222e:	4606      	mov	r6, r0
 8002230:	460f      	mov	r7, r1
 8002232:	d016      	beq.n	8002262 <__ieee754_rem_pio2+0xea>
 8002234:	a38a      	add	r3, pc, #552	; (adr r3, 8002460 <__ieee754_rem_pio2+0x2e8>)
 8002236:	e9d3 2300 	ldrd	r2, r3, [r3]
 800223a:	f7fd ffcb 	bl	80001d4 <__adddf3>
 800223e:	4602      	mov	r2, r0
 8002240:	460b      	mov	r3, r1
 8002242:	e9c4 2300 	strd	r2, r3, [r4]
 8002246:	4630      	mov	r0, r6
 8002248:	4639      	mov	r1, r7
 800224a:	f7fd ffc1 	bl	80001d0 <__aeabi_dsub>
 800224e:	a384      	add	r3, pc, #528	; (adr r3, 8002460 <__ieee754_rem_pio2+0x2e8>)
 8002250:	e9d3 2300 	ldrd	r2, r3, [r3]
 8002254:	f7fd ffbe 	bl	80001d4 <__adddf3>
 8002258:	f04f 35ff 	mov.w	r5, #4294967295
 800225c:	e9c4 0102 	strd	r0, r1, [r4, #8]
 8002260:	e7c6      	b.n	80021f0 <__ieee754_rem_pio2+0x78>
 8002262:	a381      	add	r3, pc, #516	; (adr r3, 8002468 <__ieee754_rem_pio2+0x2f0>)
 8002264:	e9d3 2300 	ldrd	r2, r3, [r3]
 8002268:	f7fd ffb4 	bl	80001d4 <__adddf3>
 800226c:	a380      	add	r3, pc, #512	; (adr r3, 8002470 <__ieee754_rem_pio2+0x2f8>)
 800226e:	e9d3 2300 	ldrd	r2, r3, [r3]
 8002272:	4606      	mov	r6, r0
 8002274:	460f      	mov	r7, r1
 8002276:	f7fd ffad 	bl	80001d4 <__adddf3>
 800227a:	4602      	mov	r2, r0
 800227c:	460b      	mov	r3, r1
 800227e:	e9c4 2300 	strd	r2, r3, [r4]
 8002282:	4630      	mov	r0, r6
 8002284:	4639      	mov	r1, r7
 8002286:	f7fd ffa3 	bl	80001d0 <__aeabi_dsub>
 800228a:	a379      	add	r3, pc, #484	; (adr r3, 8002470 <__ieee754_rem_pio2+0x2f8>)
 800228c:	e9d3 2300 	ldrd	r2, r3, [r3]
 8002290:	e7e0      	b.n	8002254 <__ieee754_rem_pio2+0xdc>
 8002292:	4b82      	ldr	r3, [pc, #520]	; (800249c <__ieee754_rem_pio2+0x324>)
 8002294:	4598      	cmp	r8, r3
 8002296:	f300 80d0 	bgt.w	800243a <__ieee754_rem_pio2+0x2c2>
 800229a:	f001 f95b 	bl	8003554 <fabs>
 800229e:	ec57 6b10 	vmov	r6, r7, d0
 80022a2:	ee10 0a10 	vmov	r0, s0
 80022a6:	a374      	add	r3, pc, #464	; (adr r3, 8002478 <__ieee754_rem_pio2+0x300>)
 80022a8:	e9d3 2300 	ldrd	r2, r3, [r3]
 80022ac:	4639      	mov	r1, r7
 80022ae:	f7fe f943 	bl	8000538 <__aeabi_dmul>
 80022b2:	2200      	movs	r2, #0
 80022b4:	4b7a      	ldr	r3, [pc, #488]	; (80024a0 <__ieee754_rem_pio2+0x328>)
 80022b6:	f7fd ff8d 	bl	80001d4 <__adddf3>
 80022ba:	f7fe fbd7 	bl	8000a6c <__aeabi_d2iz>
 80022be:	4605      	mov	r5, r0
 80022c0:	f7fe f8d4 	bl	800046c <__aeabi_i2d>
 80022c4:	a364      	add	r3, pc, #400	; (adr r3, 8002458 <__ieee754_rem_pio2+0x2e0>)
 80022c6:	e9d3 2300 	ldrd	r2, r3, [r3]
 80022ca:	e9cd 0102 	strd	r0, r1, [sp, #8]
 80022ce:	f7fe f933 	bl	8000538 <__aeabi_dmul>
 80022d2:	4602      	mov	r2, r0
 80022d4:	460b      	mov	r3, r1
 80022d6:	4630      	mov	r0, r6
 80022d8:	4639      	mov	r1, r7
 80022da:	f7fd ff79 	bl	80001d0 <__aeabi_dsub>
 80022de:	a360      	add	r3, pc, #384	; (adr r3, 8002460 <__ieee754_rem_pio2+0x2e8>)
 80022e0:	e9d3 2300 	ldrd	r2, r3, [r3]
 80022e4:	4682      	mov	sl, r0
 80022e6:	468b      	mov	fp, r1
 80022e8:	e9dd 0102 	ldrd	r0, r1, [sp, #8]
 80022ec:	f7fe f924 	bl	8000538 <__aeabi_dmul>
 80022f0:	2d1f      	cmp	r5, #31
 80022f2:	4606      	mov	r6, r0
 80022f4:	460f      	mov	r7, r1
 80022f6:	dc2a      	bgt.n	800234e <__ieee754_rem_pio2+0x1d6>
 80022f8:	1e6a      	subs	r2, r5, #1
 80022fa:	4b6a      	ldr	r3, [pc, #424]	; (80024a4 <__ieee754_rem_pio2+0x32c>)
 80022fc:	f853 3022 	ldr.w	r3, [r3, r2, lsl #2]
 8002300:	4598      	cmp	r8, r3
 8002302:	d024      	beq.n	800234e <__ieee754_rem_pio2+0x1d6>
 8002304:	4632      	mov	r2, r6
 8002306:	463b      	mov	r3, r7
 8002308:	4650      	mov	r0, sl
 800230a:	4659      	mov	r1, fp
 800230c:	f7fd ff60 	bl	80001d0 <__aeabi_dsub>
 8002310:	e9c4 0100 	strd	r0, r1, [r4]
 8002314:	e9d4 8900 	ldrd	r8, r9, [r4]
 8002318:	4650      	mov	r0, sl
 800231a:	4642      	mov	r2, r8
 800231c:	464b      	mov	r3, r9
 800231e:	4659      	mov	r1, fp
 8002320:	f7fd ff56 	bl	80001d0 <__aeabi_dsub>
 8002324:	463b      	mov	r3, r7
 8002326:	4632      	mov	r2, r6
 8002328:	f7fd ff52 	bl	80001d0 <__aeabi_dsub>
 800232c:	9b04      	ldr	r3, [sp, #16]
 800232e:	2b00      	cmp	r3, #0
 8002330:	e9c4 0102 	strd	r0, r1, [r4, #8]
 8002334:	f6bf af5c 	bge.w	80021f0 <__ieee754_rem_pio2+0x78>
 8002338:	f109 4300 	add.w	r3, r9, #2147483648	; 0x80000000
 800233c:	6063      	str	r3, [r4, #4]
 800233e:	f8c4 8000 	str.w	r8, [r4]
 8002342:	60a0      	str	r0, [r4, #8]
 8002344:	f101 4300 	add.w	r3, r1, #2147483648	; 0x80000000
 8002348:	60e3      	str	r3, [r4, #12]
 800234a:	426d      	negs	r5, r5
 800234c:	e750      	b.n	80021f0 <__ieee754_rem_pio2+0x78>
 800234e:	4632      	mov	r2, r6
 8002350:	463b      	mov	r3, r7
 8002352:	4650      	mov	r0, sl
 8002354:	4659      	mov	r1, fp
 8002356:	f7fd ff3b 	bl	80001d0 <__aeabi_dsub>
 800235a:	ea4f 5228 	mov.w	r2, r8, asr #20
 800235e:	f3c1 530a 	ubfx	r3, r1, #20, #11
 8002362:	1ad3      	subs	r3, r2, r3
 8002364:	2b10      	cmp	r3, #16
 8002366:	e9c4 0100 	strd	r0, r1, [r4]
 800236a:	9205      	str	r2, [sp, #20]
 800236c:	ddd2      	ble.n	8002314 <__ieee754_rem_pio2+0x19c>
 800236e:	a33e      	add	r3, pc, #248	; (adr r3, 8002468 <__ieee754_rem_pio2+0x2f0>)
 8002370:	e9d3 2300 	ldrd	r2, r3, [r3]
 8002374:	e9dd 0102 	ldrd	r0, r1, [sp, #8]
 8002378:	f7fe f8de 	bl	8000538 <__aeabi_dmul>
 800237c:	4606      	mov	r6, r0
 800237e:	460f      	mov	r7, r1
 8002380:	4602      	mov	r2, r0
 8002382:	460b      	mov	r3, r1
 8002384:	4650      	mov	r0, sl
 8002386:	4659      	mov	r1, fp
 8002388:	f7fd ff22 	bl	80001d0 <__aeabi_dsub>
 800238c:	4602      	mov	r2, r0
 800238e:	460b      	mov	r3, r1
 8002390:	4680      	mov	r8, r0
 8002392:	4689      	mov	r9, r1
 8002394:	4650      	mov	r0, sl
 8002396:	4659      	mov	r1, fp
 8002398:	f7fd ff1a 	bl	80001d0 <__aeabi_dsub>
 800239c:	4632      	mov	r2, r6
 800239e:	463b      	mov	r3, r7
 80023a0:	f7fd ff16 	bl	80001d0 <__aeabi_dsub>
 80023a4:	a332      	add	r3, pc, #200	; (adr r3, 8002470 <__ieee754_rem_pio2+0x2f8>)
 80023a6:	e9d3 2300 	ldrd	r2, r3, [r3]
 80023aa:	4606      	mov	r6, r0
 80023ac:	460f      	mov	r7, r1
 80023ae:	e9dd 0102 	ldrd	r0, r1, [sp, #8]
 80023b2:	f7fe f8c1 	bl	8000538 <__aeabi_dmul>
 80023b6:	4632      	mov	r2, r6
 80023b8:	463b      	mov	r3, r7
 80023ba:	f7fd ff09 	bl	80001d0 <__aeabi_dsub>
 80023be:	4602      	mov	r2, r0
 80023c0:	460b      	mov	r3, r1
 80023c2:	4606      	mov	r6, r0
 80023c4:	460f      	mov	r7, r1
 80023c6:	4640      	mov	r0, r8
 80023c8:	4649      	mov	r1, r9
 80023ca:	f7fd ff01 	bl	80001d0 <__aeabi_dsub>
 80023ce:	9a05      	ldr	r2, [sp, #20]
 80023d0:	f3c1 530a 	ubfx	r3, r1, #20, #11
 80023d4:	1ad3      	subs	r3, r2, r3
 80023d6:	2b31      	cmp	r3, #49	; 0x31
 80023d8:	e9c4 0100 	strd	r0, r1, [r4]
 80023dc:	dd2a      	ble.n	8002434 <__ieee754_rem_pio2+0x2bc>
 80023de:	a328      	add	r3, pc, #160	; (adr r3, 8002480 <__ieee754_rem_pio2+0x308>)
 80023e0:	e9d3 2300 	ldrd	r2, r3, [r3]
 80023e4:	e9dd 0102 	ldrd	r0, r1, [sp, #8]
 80023e8:	f7fe f8a6 	bl	8000538 <__aeabi_dmul>
 80023ec:	4606      	mov	r6, r0
 80023ee:	460f      	mov	r7, r1
 80023f0:	4602      	mov	r2, r0
 80023f2:	460b      	mov	r3, r1
 80023f4:	4640      	mov	r0, r8
 80023f6:	4649      	mov	r1, r9
 80023f8:	f7fd feea 	bl	80001d0 <__aeabi_dsub>
 80023fc:	4602      	mov	r2, r0
 80023fe:	460b      	mov	r3, r1
 8002400:	4682      	mov	sl, r0
 8002402:	468b      	mov	fp, r1
 8002404:	4640      	mov	r0, r8
 8002406:	4649      	mov	r1, r9
 8002408:	f7fd fee2 	bl	80001d0 <__aeabi_dsub>
 800240c:	4632      	mov	r2, r6
 800240e:	463b      	mov	r3, r7
 8002410:	f7fd fede 	bl	80001d0 <__aeabi_dsub>
 8002414:	a31c      	add	r3, pc, #112	; (adr r3, 8002488 <__ieee754_rem_pio2+0x310>)
 8002416:	e9d3 2300 	ldrd	r2, r3, [r3]
 800241a:	4606      	mov	r6, r0
 800241c:	460f      	mov	r7, r1
 800241e:	e9dd 0102 	ldrd	r0, r1, [sp, #8]
 8002422:	f7fe f889 	bl	8000538 <__aeabi_dmul>
 8002426:	4632      	mov	r2, r6
 8002428:	463b      	mov	r3, r7
 800242a:	f7fd fed1 	bl	80001d0 <__aeabi_dsub>
 800242e:	4606      	mov	r6, r0
 8002430:	460f      	mov	r7, r1
 8002432:	e767      	b.n	8002304 <__ieee754_rem_pio2+0x18c>
 8002434:	46c2      	mov	sl, r8
 8002436:	46cb      	mov	fp, r9
 8002438:	e76c      	b.n	8002314 <__ieee754_rem_pio2+0x19c>
 800243a:	4b1b      	ldr	r3, [pc, #108]	; (80024a8 <__ieee754_rem_pio2+0x330>)
 800243c:	4598      	cmp	r8, r3
 800243e:	dd35      	ble.n	80024ac <__ieee754_rem_pio2+0x334>
 8002440:	ee10 2a10 	vmov	r2, s0
 8002444:	463b      	mov	r3, r7
 8002446:	4630      	mov	r0, r6
 8002448:	4639      	mov	r1, r7
 800244a:	f7fd fec1 	bl	80001d0 <__aeabi_dsub>
 800244e:	e9c4 0102 	strd	r0, r1, [r4, #8]
 8002452:	e9c4 0100 	strd	r0, r1, [r4]
 8002456:	e6a1      	b.n	800219c <__ieee754_rem_pio2+0x24>
 8002458:	54400000 	.word	0x54400000
 800245c:	3ff921fb 	.word	0x3ff921fb
 8002460:	1a626331 	.word	0x1a626331
 8002464:	3dd0b461 	.word	0x3dd0b461
 8002468:	1a600000 	.word	0x1a600000
 800246c:	3dd0b461 	.word	0x3dd0b461
 8002470:	2e037073 	.word	0x2e037073
 8002474:	3ba3198a 	.word	0x3ba3198a
 8002478:	6dc9c883 	.word	0x6dc9c883
 800247c:	3fe45f30 	.word	0x3fe45f30
 8002480:	2e000000 	.word	0x2e000000
 8002484:	3ba3198a 	.word	0x3ba3198a
 8002488:	252049c1 	.word	0x252049c1
 800248c:	397b839a 	.word	0x397b839a
 8002490:	3fe921fb 	.word	0x3fe921fb
 8002494:	4002d97b 	.word	0x4002d97b
 8002498:	3ff921fb 	.word	0x3ff921fb
 800249c:	413921fb 	.word	0x413921fb
 80024a0:	3fe00000 	.word	0x3fe00000
 80024a4:	08008a18 	.word	0x08008a18
 80024a8:	7fefffff 	.word	0x7fefffff
 80024ac:	ea4f 5528 	mov.w	r5, r8, asr #20
 80024b0:	f2a5 4516 	subw	r5, r5, #1046	; 0x416
 80024b4:	eba8 5105 	sub.w	r1, r8, r5, lsl #20
 80024b8:	4630      	mov	r0, r6
 80024ba:	460f      	mov	r7, r1
 80024bc:	f7fe fad6 	bl	8000a6c <__aeabi_d2iz>
 80024c0:	f7fd ffd4 	bl	800046c <__aeabi_i2d>
 80024c4:	4602      	mov	r2, r0
 80024c6:	460b      	mov	r3, r1
 80024c8:	4630      	mov	r0, r6
 80024ca:	4639      	mov	r1, r7
 80024cc:	e9cd 2306 	strd	r2, r3, [sp, #24]
 80024d0:	f7fd fe7e 	bl	80001d0 <__aeabi_dsub>
 80024d4:	2200      	movs	r2, #0
 80024d6:	4b1f      	ldr	r3, [pc, #124]	; (8002554 <__ieee754_rem_pio2+0x3dc>)
 80024d8:	f7fe f82e 	bl	8000538 <__aeabi_dmul>
 80024dc:	460f      	mov	r7, r1
 80024de:	4606      	mov	r6, r0
 80024e0:	f7fe fac4 	bl	8000a6c <__aeabi_d2iz>
 80024e4:	f7fd ffc2 	bl	800046c <__aeabi_i2d>
 80024e8:	4602      	mov	r2, r0
 80024ea:	460b      	mov	r3, r1
 80024ec:	4630      	mov	r0, r6
 80024ee:	4639      	mov	r1, r7
 80024f0:	e9cd 2308 	strd	r2, r3, [sp, #32]
 80024f4:	f7fd fe6c 	bl	80001d0 <__aeabi_dsub>
 80024f8:	2200      	movs	r2, #0
 80024fa:	4b16      	ldr	r3, [pc, #88]	; (8002554 <__ieee754_rem_pio2+0x3dc>)
 80024fc:	f7fe f81c 	bl	8000538 <__aeabi_dmul>
 8002500:	e9cd 010a 	strd	r0, r1, [sp, #40]	; 0x28
 8002504:	f10d 0930 	add.w	r9, sp, #48	; 0x30
 8002508:	f04f 0803 	mov.w	r8, #3
 800250c:	2600      	movs	r6, #0
 800250e:	2700      	movs	r7, #0
 8002510:	4632      	mov	r2, r6
 8002512:	463b      	mov	r3, r7
 8002514:	e979 0102 	ldrd	r0, r1, [r9, #-8]!
 8002518:	f108 3aff 	add.w	sl, r8, #4294967295
 800251c:	f7fe fa74 	bl	8000a08 <__aeabi_dcmpeq>
 8002520:	b9b0      	cbnz	r0, 8002550 <__ieee754_rem_pio2+0x3d8>
 8002522:	4b0d      	ldr	r3, [pc, #52]	; (8002558 <__ieee754_rem_pio2+0x3e0>)
 8002524:	9301      	str	r3, [sp, #4]
 8002526:	2302      	movs	r3, #2
 8002528:	9300      	str	r3, [sp, #0]
 800252a:	462a      	mov	r2, r5
 800252c:	4643      	mov	r3, r8
 800252e:	4621      	mov	r1, r4
 8002530:	a806      	add	r0, sp, #24
 8002532:	f000 fc05 	bl	8002d40 <__kernel_rem_pio2>
 8002536:	9b04      	ldr	r3, [sp, #16]
 8002538:	2b00      	cmp	r3, #0
 800253a:	4605      	mov	r5, r0
 800253c:	f6bf ae58 	bge.w	80021f0 <__ieee754_rem_pio2+0x78>
 8002540:	6863      	ldr	r3, [r4, #4]
 8002542:	f103 4300 	add.w	r3, r3, #2147483648	; 0x80000000
 8002546:	6063      	str	r3, [r4, #4]
 8002548:	68e3      	ldr	r3, [r4, #12]
 800254a:	f103 4300 	add.w	r3, r3, #2147483648	; 0x80000000
 800254e:	e6fb      	b.n	8002348 <__ieee754_rem_pio2+0x1d0>
 8002550:	46d0      	mov	r8, sl
 8002552:	e7dd      	b.n	8002510 <__ieee754_rem_pio2+0x398>
 8002554:	41700000 	.word	0x41700000
 8002558:	08008a98 	.word	0x08008a98

0800255c <__ieee754_powf>:
 800255c:	e92d 41f0 	stmdb	sp!, {r4, r5, r6, r7, r8, lr}
 8002560:	ee10 5a90 	vmov	r5, s1
 8002564:	f035 4700 	bics.w	r7, r5, #2147483648	; 0x80000000
 8002568:	ed2d 8b02 	vpush	{d8}
 800256c:	eeb0 8a40 	vmov.f32	s16, s0
 8002570:	eef0 8a60 	vmov.f32	s17, s1
 8002574:	f000 8295 	beq.w	8002aa2 <__ieee754_powf+0x546>
 8002578:	ee10 8a10 	vmov	r8, s0
 800257c:	f028 4400 	bic.w	r4, r8, #2147483648	; 0x80000000
 8002580:	f1b4 4fff 	cmp.w	r4, #2139095040	; 0x7f800000
 8002584:	dc06      	bgt.n	8002594 <__ieee754_powf+0x38>
 8002586:	f1b7 4fff 	cmp.w	r7, #2139095040	; 0x7f800000
 800258a:	dd0a      	ble.n	80025a2 <__ieee754_powf+0x46>
 800258c:	f1b4 5f7e 	cmp.w	r4, #1065353216	; 0x3f800000
 8002590:	f000 8287 	beq.w	8002aa2 <__ieee754_powf+0x546>
 8002594:	ecbd 8b02 	vpop	{d8}
 8002598:	48d9      	ldr	r0, [pc, #868]	; (8002900 <__ieee754_powf+0x3a4>)
 800259a:	e8bd 41f0 	ldmia.w	sp!, {r4, r5, r6, r7, r8, lr}
 800259e:	f001 b97f 	b.w	80038a0 <nanf>
 80025a2:	f1b8 0f00 	cmp.w	r8, #0
 80025a6:	da1d      	bge.n	80025e4 <__ieee754_powf+0x88>
 80025a8:	f1b7 4f97 	cmp.w	r7, #1266679808	; 0x4b800000
 80025ac:	da2c      	bge.n	8002608 <__ieee754_powf+0xac>
 80025ae:	f1b7 5f7e 	cmp.w	r7, #1065353216	; 0x3f800000
 80025b2:	db30      	blt.n	8002616 <__ieee754_powf+0xba>
 80025b4:	15fb      	asrs	r3, r7, #23
 80025b6:	f1c3 0396 	rsb	r3, r3, #150	; 0x96
 80025ba:	fa47 f603 	asr.w	r6, r7, r3
 80025be:	fa06 f303 	lsl.w	r3, r6, r3
 80025c2:	429f      	cmp	r7, r3
 80025c4:	d127      	bne.n	8002616 <__ieee754_powf+0xba>
 80025c6:	f006 0601 	and.w	r6, r6, #1
 80025ca:	f1c6 0602 	rsb	r6, r6, #2
 80025ce:	f1b7 5f7e 	cmp.w	r7, #1065353216	; 0x3f800000
 80025d2:	d122      	bne.n	800261a <__ieee754_powf+0xbe>
 80025d4:	2d00      	cmp	r5, #0
 80025d6:	f280 826a 	bge.w	8002aae <__ieee754_powf+0x552>
 80025da:	eef7 7a00 	vmov.f32	s15, #112	; 0x3f800000  1.0
 80025de:	ee87 0a88 	vdiv.f32	s0, s15, s16
 80025e2:	e00d      	b.n	8002600 <__ieee754_powf+0xa4>
 80025e4:	2600      	movs	r6, #0
 80025e6:	f1b7 4fff 	cmp.w	r7, #2139095040	; 0x7f800000
 80025ea:	d1f0      	bne.n	80025ce <__ieee754_powf+0x72>
 80025ec:	f1b4 5f7e 	cmp.w	r4, #1065353216	; 0x3f800000
 80025f0:	f000 8257 	beq.w	8002aa2 <__ieee754_powf+0x546>
 80025f4:	dd0a      	ble.n	800260c <__ieee754_powf+0xb0>
 80025f6:	2d00      	cmp	r5, #0
 80025f8:	f280 8256 	bge.w	8002aa8 <__ieee754_powf+0x54c>
 80025fc:	ed9f 0ac1 	vldr	s0, [pc, #772]	; 8002904 <__ieee754_powf+0x3a8>
 8002600:	ecbd 8b02 	vpop	{d8}
 8002604:	e8bd 81f0 	ldmia.w	sp!, {r4, r5, r6, r7, r8, pc}
 8002608:	2602      	movs	r6, #2
 800260a:	e7ec      	b.n	80025e6 <__ieee754_powf+0x8a>
 800260c:	2d00      	cmp	r5, #0
 800260e:	daf5      	bge.n	80025fc <__ieee754_powf+0xa0>
 8002610:	eeb1 0a68 	vneg.f32	s0, s17
 8002614:	e7f4      	b.n	8002600 <__ieee754_powf+0xa4>
 8002616:	2600      	movs	r6, #0
 8002618:	e7d9      	b.n	80025ce <__ieee754_powf+0x72>
 800261a:	f1b5 4f80 	cmp.w	r5, #1073741824	; 0x40000000
 800261e:	d102      	bne.n	8002626 <__ieee754_powf+0xca>
 8002620:	ee28 0a08 	vmul.f32	s0, s16, s16
 8002624:	e7ec      	b.n	8002600 <__ieee754_powf+0xa4>
 8002626:	f1b5 5f7c 	cmp.w	r5, #1056964608	; 0x3f000000
 800262a:	eeb0 0a48 	vmov.f32	s0, s16
 800262e:	d108      	bne.n	8002642 <__ieee754_powf+0xe6>
 8002630:	f1b8 0f00 	cmp.w	r8, #0
 8002634:	db05      	blt.n	8002642 <__ieee754_powf+0xe6>
 8002636:	ecbd 8b02 	vpop	{d8}
 800263a:	e8bd 41f0 	ldmia.w	sp!, {r4, r5, r6, r7, r8, lr}
 800263e:	f000 ba4f 	b.w	8002ae0 <__ieee754_sqrtf>
 8002642:	f001 f91b 	bl	800387c <fabsf>
 8002646:	b124      	cbz	r4, 8002652 <__ieee754_powf+0xf6>
 8002648:	f028 4340 	bic.w	r3, r8, #3221225472	; 0xc0000000
 800264c:	f1b3 5f7e 	cmp.w	r3, #1065353216	; 0x3f800000
 8002650:	d117      	bne.n	8002682 <__ieee754_powf+0x126>
 8002652:	2d00      	cmp	r5, #0
 8002654:	bfbc      	itt	lt
 8002656:	eef7 7a00 	vmovlt.f32	s15, #112	; 0x3f800000  1.0
 800265a:	ee87 0a80 	vdivlt.f32	s0, s15, s0
 800265e:	f1b8 0f00 	cmp.w	r8, #0
 8002662:	dacd      	bge.n	8002600 <__ieee754_powf+0xa4>
 8002664:	f1a4 547e 	sub.w	r4, r4, #1065353216	; 0x3f800000
 8002668:	ea54 0306 	orrs.w	r3, r4, r6
 800266c:	d104      	bne.n	8002678 <__ieee754_powf+0x11c>
 800266e:	ee70 7a40 	vsub.f32	s15, s0, s0
 8002672:	ee87 0aa7 	vdiv.f32	s0, s15, s15
 8002676:	e7c3      	b.n	8002600 <__ieee754_powf+0xa4>
 8002678:	2e01      	cmp	r6, #1
 800267a:	d1c1      	bne.n	8002600 <__ieee754_powf+0xa4>
 800267c:	eeb1 0a40 	vneg.f32	s0, s0
 8002680:	e7be      	b.n	8002600 <__ieee754_powf+0xa4>
 8002682:	ea4f 70d8 	mov.w	r0, r8, lsr #31
 8002686:	3801      	subs	r0, #1
 8002688:	ea56 0300 	orrs.w	r3, r6, r0
 800268c:	d104      	bne.n	8002698 <__ieee754_powf+0x13c>
 800268e:	ee38 8a48 	vsub.f32	s16, s16, s16
 8002692:	ee88 0a08 	vdiv.f32	s0, s16, s16
 8002696:	e7b3      	b.n	8002600 <__ieee754_powf+0xa4>
 8002698:	f1b7 4f9a 	cmp.w	r7, #1291845632	; 0x4d000000
 800269c:	dd6d      	ble.n	800277a <__ieee754_powf+0x21e>
 800269e:	4b9a      	ldr	r3, [pc, #616]	; (8002908 <__ieee754_powf+0x3ac>)
 80026a0:	429c      	cmp	r4, r3
 80026a2:	dc06      	bgt.n	80026b2 <__ieee754_powf+0x156>
 80026a4:	2d00      	cmp	r5, #0
 80026a6:	daa9      	bge.n	80025fc <__ieee754_powf+0xa0>
 80026a8:	ed9f 0a98 	vldr	s0, [pc, #608]	; 800290c <__ieee754_powf+0x3b0>
 80026ac:	ee20 0a00 	vmul.f32	s0, s0, s0
 80026b0:	e7a6      	b.n	8002600 <__ieee754_powf+0xa4>
 80026b2:	4b97      	ldr	r3, [pc, #604]	; (8002910 <__ieee754_powf+0x3b4>)
 80026b4:	429c      	cmp	r4, r3
 80026b6:	dd02      	ble.n	80026be <__ieee754_powf+0x162>
 80026b8:	2d00      	cmp	r5, #0
 80026ba:	dcf5      	bgt.n	80026a8 <__ieee754_powf+0x14c>
 80026bc:	e79e      	b.n	80025fc <__ieee754_powf+0xa0>
 80026be:	eef7 7a00 	vmov.f32	s15, #112	; 0x3f800000  1.0
 80026c2:	ee30 0a67 	vsub.f32	s0, s0, s15
 80026c6:	ed9f 7a93 	vldr	s14, [pc, #588]	; 8002914 <__ieee754_powf+0x3b8>
 80026ca:	ed9f 6a93 	vldr	s12, [pc, #588]	; 8002918 <__ieee754_powf+0x3bc>
 80026ce:	eef1 6a40 	vneg.f32	s13, s0
 80026d2:	eef5 7a00 	vmov.f32	s15, #80	; 0x3e800000  0.250
 80026d6:	eea6 7aa7 	vfma.f32	s14, s13, s15
 80026da:	eef6 7a00 	vmov.f32	s15, #96	; 0x3f000000  0.5
 80026de:	eee6 7a87 	vfma.f32	s15, s13, s14
 80026e2:	ee20 7a00 	vmul.f32	s14, s0, s0
 80026e6:	ee27 7a87 	vmul.f32	s14, s15, s14
 80026ea:	eddf 7a8c 	vldr	s15, [pc, #560]	; 800291c <__ieee754_powf+0x3c0>
 80026ee:	ee67 7ac7 	vnmul.f32	s15, s15, s14
 80026f2:	ed9f 7a8b 	vldr	s14, [pc, #556]	; 8002920 <__ieee754_powf+0x3c4>
 80026f6:	eee0 7a07 	vfma.f32	s15, s0, s14
 80026fa:	eeb0 7a67 	vmov.f32	s14, s15
 80026fe:	eea0 7a06 	vfma.f32	s14, s0, s12
 8002702:	ee17 3a10 	vmov	r3, s14
 8002706:	f423 637f 	bic.w	r3, r3, #4080	; 0xff0
 800270a:	f023 030f 	bic.w	r3, r3, #15
 800270e:	ee07 3a10 	vmov	s14, r3
 8002712:	eea6 7a86 	vfma.f32	s14, s13, s12
 8002716:	ee77 7ac7 	vsub.f32	s15, s15, s14
 800271a:	f425 657f 	bic.w	r5, r5, #4080	; 0xff0
 800271e:	f025 050f 	bic.w	r5, r5, #15
 8002722:	ee07 5a10 	vmov	s14, r5
 8002726:	ee67 7aa8 	vmul.f32	s15, s15, s17
 800272a:	ee78 8ac7 	vsub.f32	s17, s17, s14
 800272e:	ee07 3a10 	vmov	s14, r3
 8002732:	ee06 5a90 	vmov	s13, r5
 8002736:	eee7 7a28 	vfma.f32	s15, s14, s17
 800273a:	3e01      	subs	r6, #1
 800273c:	ea56 0200 	orrs.w	r2, r6, r0
 8002740:	ee27 7a26 	vmul.f32	s14, s14, s13
 8002744:	eebf 0a00 	vmov.f32	s0, #240	; 0xbf800000 -1.0
 8002748:	ee77 6a87 	vadd.f32	s13, s15, s14
 800274c:	eeb7 8a00 	vmov.f32	s16, #112	; 0x3f800000  1.0
 8002750:	ee16 4a90 	vmov	r4, s13
 8002754:	bf08      	it	eq
 8002756:	eeb0 8a40 	vmoveq.f32	s16, s0
 800275a:	2c00      	cmp	r4, #0
 800275c:	f024 4300 	bic.w	r3, r4, #2147483648	; 0x80000000
 8002760:	f340 8186 	ble.w	8002a70 <__ieee754_powf+0x514>
 8002764:	f1b3 4f86 	cmp.w	r3, #1124073472	; 0x43000000
 8002768:	f340 80fc 	ble.w	8002964 <__ieee754_powf+0x408>
 800276c:	eddf 7a67 	vldr	s15, [pc, #412]	; 800290c <__ieee754_powf+0x3b0>
 8002770:	ee28 0a27 	vmul.f32	s0, s16, s15
 8002774:	ee20 0a27 	vmul.f32	s0, s0, s15
 8002778:	e742      	b.n	8002600 <__ieee754_powf+0xa4>
 800277a:	f5b4 0f00 	cmp.w	r4, #8388608	; 0x800000
 800277e:	bfbf      	itttt	lt
 8002780:	eddf 7a68 	vldrlt	s15, [pc, #416]	; 8002924 <__ieee754_powf+0x3c8>
 8002784:	ee60 7a27 	vmullt.f32	s15, s0, s15
 8002788:	f06f 0217 	mvnlt.w	r2, #23
 800278c:	ee17 4a90 	vmovlt	r4, s15
 8002790:	ea4f 53e4 	mov.w	r3, r4, asr #23
 8002794:	bfa8      	it	ge
 8002796:	2200      	movge	r2, #0
 8002798:	3b7f      	subs	r3, #127	; 0x7f
 800279a:	4413      	add	r3, r2
 800279c:	4a62      	ldr	r2, [pc, #392]	; (8002928 <__ieee754_powf+0x3cc>)
 800279e:	f3c4 0416 	ubfx	r4, r4, #0, #23
 80027a2:	4294      	cmp	r4, r2
 80027a4:	f044 517e 	orr.w	r1, r4, #1065353216	; 0x3f800000
 80027a8:	dd06      	ble.n	80027b8 <__ieee754_powf+0x25c>
 80027aa:	4a60      	ldr	r2, [pc, #384]	; (800292c <__ieee754_powf+0x3d0>)
 80027ac:	4294      	cmp	r4, r2
 80027ae:	f340 80a5 	ble.w	80028fc <__ieee754_powf+0x3a0>
 80027b2:	3301      	adds	r3, #1
 80027b4:	f5a1 0100 	sub.w	r1, r1, #8388608	; 0x800000
 80027b8:	2400      	movs	r4, #0
 80027ba:	4a5d      	ldr	r2, [pc, #372]	; (8002930 <__ieee754_powf+0x3d4>)
 80027bc:	00a7      	lsls	r7, r4, #2
 80027be:	443a      	add	r2, r7
 80027c0:	ee07 1a90 	vmov	s15, r1
 80027c4:	ed92 7a00 	vldr	s14, [r2]
 80027c8:	4a5a      	ldr	r2, [pc, #360]	; (8002934 <__ieee754_powf+0x3d8>)
 80027ca:	ee77 6a87 	vadd.f32	s13, s15, s14
 80027ce:	eef7 5a00 	vmov.f32	s11, #112	; 0x3f800000  1.0
 80027d2:	ee85 5aa6 	vdiv.f32	s10, s11, s13
 80027d6:	1049      	asrs	r1, r1, #1
 80027d8:	f041 5100 	orr.w	r1, r1, #536870912	; 0x20000000
 80027dc:	f501 2180 	add.w	r1, r1, #262144	; 0x40000
 80027e0:	eb01 5144 	add.w	r1, r1, r4, lsl #21
 80027e4:	ee37 6ac7 	vsub.f32	s12, s15, s14
 80027e8:	ee06 1a90 	vmov	s13, r1
 80027ec:	ee66 4a05 	vmul.f32	s9, s12, s10
 80027f0:	ee14 ea90 	vmov	lr, s9
 80027f4:	ea02 0e0e 	and.w	lr, r2, lr
 80027f8:	ee05 ea90 	vmov	s11, lr
 80027fc:	eeb1 4a65 	vneg.f32	s8, s11
 8002800:	eea4 6a26 	vfma.f32	s12, s8, s13
 8002804:	ee76 6ac7 	vsub.f32	s13, s13, s14
 8002808:	ee35 7aa4 	vadd.f32	s14, s11, s9
 800280c:	ee77 6ae6 	vsub.f32	s13, s15, s13
 8002810:	eddf 7a49 	vldr	s15, [pc, #292]	; 8002938 <__ieee754_powf+0x3dc>
 8002814:	eea4 6a26 	vfma.f32	s12, s8, s13
 8002818:	ee66 6a05 	vmul.f32	s13, s12, s10
 800281c:	ee24 6aa4 	vmul.f32	s12, s9, s9
 8002820:	ed9f 5a46 	vldr	s10, [pc, #280]	; 800293c <__ieee754_powf+0x3e0>
 8002824:	eee6 7a05 	vfma.f32	s15, s12, s10
 8002828:	ed9f 5a45 	vldr	s10, [pc, #276]	; 8002940 <__ieee754_powf+0x3e4>
 800282c:	eea6 5a27 	vfma.f32	s10, s12, s15
 8002830:	eddf 7a38 	vldr	s15, [pc, #224]	; 8002914 <__ieee754_powf+0x3b8>
 8002834:	eee6 7a05 	vfma.f32	s15, s12, s10
 8002838:	ed9f 5a42 	vldr	s10, [pc, #264]	; 8002944 <__ieee754_powf+0x3e8>
 800283c:	eea6 5a27 	vfma.f32	s10, s12, s15
 8002840:	eddf 7a41 	vldr	s15, [pc, #260]	; 8002948 <__ieee754_powf+0x3ec>
 8002844:	eee6 7a05 	vfma.f32	s15, s12, s10
 8002848:	ee66 3a06 	vmul.f32	s7, s12, s12
 800284c:	eeb0 5a08 	vmov.f32	s10, #8	; 0x40400000  3.0
 8002850:	ee27 7a26 	vmul.f32	s14, s14, s13
 8002854:	eeb0 6a45 	vmov.f32	s12, s10
 8002858:	eea3 7aa7 	vfma.f32	s14, s7, s15
 800285c:	eea5 6aa5 	vfma.f32	s12, s11, s11
 8002860:	ee36 6a07 	vadd.f32	s12, s12, s14
 8002864:	ee16 1a10 	vmov	r1, s12
 8002868:	4011      	ands	r1, r2
 800286a:	ee06 1a10 	vmov	s12, r1
 800286e:	ee76 7a45 	vsub.f32	s15, s12, s10
 8002872:	ed9f 5a36 	vldr	s10, [pc, #216]	; 800294c <__ieee754_powf+0x3f0>
 8002876:	eee4 7a25 	vfma.f32	s15, s8, s11
 800287a:	ee77 7a67 	vsub.f32	s15, s14, s15
 800287e:	ee67 7aa4 	vmul.f32	s15, s15, s9
 8002882:	eee6 7a26 	vfma.f32	s15, s12, s13
 8002886:	eeb0 7a67 	vmov.f32	s14, s15
 800288a:	eea5 7a86 	vfma.f32	s14, s11, s12
 800288e:	ee17 1a10 	vmov	r1, s14
 8002892:	4011      	ands	r1, r2
 8002894:	ee07 1a10 	vmov	s14, r1
 8002898:	eea4 7a06 	vfma.f32	s14, s8, s12
 800289c:	ee05 1a90 	vmov	s11, r1
 80028a0:	ee77 7ac7 	vsub.f32	s15, s15, s14
 80028a4:	ed9f 7a2a 	vldr	s14, [pc, #168]	; 8002950 <__ieee754_powf+0x3f4>
 80028a8:	492a      	ldr	r1, [pc, #168]	; (8002954 <__ieee754_powf+0x3f8>)
 80028aa:	ee67 7a87 	vmul.f32	s15, s15, s14
 80028ae:	ed9f 7a2a 	vldr	s14, [pc, #168]	; 8002958 <__ieee754_powf+0x3fc>
 80028b2:	eee5 7a87 	vfma.f32	s15, s11, s14
 80028b6:	4439      	add	r1, r7
 80028b8:	ed91 7a00 	vldr	s14, [r1]
 80028bc:	ee37 7a87 	vadd.f32	s14, s15, s14
 80028c0:	ee07 3a90 	vmov	s15, r3
 80028c4:	eeb0 6a47 	vmov.f32	s12, s14
 80028c8:	4b24      	ldr	r3, [pc, #144]	; (800295c <__ieee754_powf+0x400>)
 80028ca:	eea5 6a85 	vfma.f32	s12, s11, s10
 80028ce:	443b      	add	r3, r7
 80028d0:	edd3 4a00 	vldr	s9, [r3]
 80028d4:	eef8 6ae7 	vcvt.f32.s32	s13, s15
 80028d8:	ee36 6a24 	vadd.f32	s12, s12, s9
 80028dc:	ee76 7a26 	vadd.f32	s15, s12, s13
 80028e0:	ee17 3a90 	vmov	r3, s15
 80028e4:	4013      	ands	r3, r2
 80028e6:	ee07 3a90 	vmov	s15, r3
 80028ea:	ee77 7ae6 	vsub.f32	s15, s15, s13
 80028ee:	ee77 7ae4 	vsub.f32	s15, s15, s9
 80028f2:	eee5 7ac5 	vfms.f32	s15, s11, s10
 80028f6:	ee77 7a67 	vsub.f32	s15, s14, s15
 80028fa:	e70e      	b.n	800271a <__ieee754_powf+0x1be>
 80028fc:	2401      	movs	r4, #1
 80028fe:	e75c      	b.n	80027ba <__ieee754_powf+0x25e>
 8002900:	08008a14 	.word	0x08008a14
 8002904:	00000000 	.word	0x00000000
 8002908:	3f7ffff7 	.word	0x3f7ffff7
 800290c:	7149f2ca 	.word	0x7149f2ca
 8002910:	3f800007 	.word	0x3f800007
 8002914:	3eaaaaab 	.word	0x3eaaaaab
 8002918:	3fb8aa00 	.word	0x3fb8aa00
 800291c:	3fb8aa3b 	.word	0x3fb8aa3b
 8002920:	36eca570 	.word	0x36eca570
 8002924:	4b800000 	.word	0x4b800000
 8002928:	001cc471 	.word	0x001cc471
 800292c:	005db3d6 	.word	0x005db3d6
 8002930:	08008ba0 	.word	0x08008ba0
 8002934:	fffff000 	.word	0xfffff000
 8002938:	3e6c3255 	.word	0x3e6c3255
 800293c:	3e53f142 	.word	0x3e53f142
 8002940:	3e8ba305 	.word	0x3e8ba305
 8002944:	3edb6db7 	.word	0x3edb6db7
 8002948:	3f19999a 	.word	0x3f19999a
 800294c:	3f763800 	.word	0x3f763800
 8002950:	3f76384f 	.word	0x3f76384f
 8002954:	08008bb0 	.word	0x08008bb0
 8002958:	369dc3a0 	.word	0x369dc3a0
 800295c:	08008ba8 	.word	0x08008ba8
 8002960:	3338aa3c 	.word	0x3338aa3c
 8002964:	f040 8094 	bne.w	8002a90 <__ieee754_powf+0x534>
 8002968:	ed1f 6a03 	vldr	s12, [pc, #-12]	; 8002960 <__ieee754_powf+0x404>
 800296c:	ee76 6ac7 	vsub.f32	s13, s13, s14
 8002970:	ee37 6a86 	vadd.f32	s12, s15, s12
 8002974:	eeb4 6ae6 	vcmpe.f32	s12, s13
 8002978:	eef1 fa10 	vmrs	APSR_nzcv, fpscr
 800297c:	f73f aef6 	bgt.w	800276c <__ieee754_powf+0x210>
 8002980:	15db      	asrs	r3, r3, #23
 8002982:	f1a3 007e 	sub.w	r0, r3, #126	; 0x7e
 8002986:	f44f 0300 	mov.w	r3, #8388608	; 0x800000
 800298a:	4103      	asrs	r3, r0
 800298c:	4423      	add	r3, r4
 800298e:	f3c3 52c7 	ubfx	r2, r3, #23, #8
 8002992:	4948      	ldr	r1, [pc, #288]	; (8002ab4 <__ieee754_powf+0x558>)
 8002994:	3a7f      	subs	r2, #127	; 0x7f
 8002996:	4111      	asrs	r1, r2
 8002998:	ea23 0101 	bic.w	r1, r3, r1
 800299c:	f3c3 0016 	ubfx	r0, r3, #0, #23
 80029a0:	ee06 1a90 	vmov	s13, r1
 80029a4:	f440 0000 	orr.w	r0, r0, #8388608	; 0x800000
 80029a8:	f1c2 0217 	rsb	r2, r2, #23
 80029ac:	4110      	asrs	r0, r2
 80029ae:	2c00      	cmp	r4, #0
 80029b0:	ee37 7a66 	vsub.f32	s14, s14, s13
 80029b4:	bfb8      	it	lt
 80029b6:	4240      	neglt	r0, r0
 80029b8:	ee77 6a27 	vadd.f32	s13, s14, s15
 80029bc:	ed9f 6a3e 	vldr	s12, [pc, #248]	; 8002ab8 <__ieee754_powf+0x55c>
 80029c0:	ee16 3a90 	vmov	r3, s13
 80029c4:	f423 637f 	bic.w	r3, r3, #4080	; 0xff0
 80029c8:	f023 030f 	bic.w	r3, r3, #15
 80029cc:	ee06 3a90 	vmov	s13, r3
 80029d0:	ee36 7ac7 	vsub.f32	s14, s13, s14
 80029d4:	ee77 7ac7 	vsub.f32	s15, s15, s14
 80029d8:	ed9f 7a38 	vldr	s14, [pc, #224]	; 8002abc <__ieee754_powf+0x560>
 80029dc:	ee26 7a87 	vmul.f32	s14, s13, s14
 80029e0:	eea7 7a86 	vfma.f32	s14, s15, s12
 80029e4:	eef0 7a47 	vmov.f32	s15, s14
 80029e8:	ed9f 7a35 	vldr	s14, [pc, #212]	; 8002ac0 <__ieee754_powf+0x564>
 80029ec:	eeb0 0a67 	vmov.f32	s0, s15
 80029f0:	eea6 0a87 	vfma.f32	s0, s13, s14
 80029f4:	eeb0 6a40 	vmov.f32	s12, s0
 80029f8:	eea6 6ac7 	vfms.f32	s12, s13, s14
 80029fc:	ee20 7a00 	vmul.f32	s14, s0, s0
 8002a00:	ee77 7ac6 	vsub.f32	s15, s15, s12
 8002a04:	eddf 6a2f 	vldr	s13, [pc, #188]	; 8002ac4 <__ieee754_powf+0x568>
 8002a08:	ed9f 6a2f 	vldr	s12, [pc, #188]	; 8002ac8 <__ieee754_powf+0x56c>
 8002a0c:	eea7 6a26 	vfma.f32	s12, s14, s13
 8002a10:	eddf 6a2e 	vldr	s13, [pc, #184]	; 8002acc <__ieee754_powf+0x570>
 8002a14:	eee7 6a06 	vfma.f32	s13, s14, s12
 8002a18:	ed9f 6a2d 	vldr	s12, [pc, #180]	; 8002ad0 <__ieee754_powf+0x574>
 8002a1c:	eea7 6a26 	vfma.f32	s12, s14, s13
 8002a20:	eddf 6a2c 	vldr	s13, [pc, #176]	; 8002ad4 <__ieee754_powf+0x578>
 8002a24:	eee7 6a06 	vfma.f32	s13, s14, s12
 8002a28:	eeb0 6a40 	vmov.f32	s12, s0
 8002a2c:	eea7 6a66 	vfms.f32	s12, s14, s13
 8002a30:	eef0 6a00 	vmov.f32	s13, #0	; 0x40000000  2.0
 8002a34:	eeb0 7a46 	vmov.f32	s14, s12
 8002a38:	ee77 6a66 	vsub.f32	s13, s14, s13
 8002a3c:	ee20 6a06 	vmul.f32	s12, s0, s12
 8002a40:	eee0 7a27 	vfma.f32	s15, s0, s15
 8002a44:	ee86 7a26 	vdiv.f32	s14, s12, s13
 8002a48:	ee77 7a67 	vsub.f32	s15, s14, s15
 8002a4c:	ee37 0ac0 	vsub.f32	s0, s15, s0
 8002a50:	eef7 7a00 	vmov.f32	s15, #112	; 0x3f800000  1.0
 8002a54:	ee37 0ac0 	vsub.f32	s0, s15, s0
 8002a58:	ee10 3a10 	vmov	r3, s0
 8002a5c:	eb03 53c0 	add.w	r3, r3, r0, lsl #23
 8002a60:	f5b3 0f00 	cmp.w	r3, #8388608	; 0x800000
 8002a64:	da1a      	bge.n	8002a9c <__ieee754_powf+0x540>
 8002a66:	f000 ff21 	bl	80038ac <scalbnf>
 8002a6a:	ee20 0a08 	vmul.f32	s0, s0, s16
 8002a6e:	e5c7      	b.n	8002600 <__ieee754_powf+0xa4>
 8002a70:	4a19      	ldr	r2, [pc, #100]	; (8002ad8 <__ieee754_powf+0x57c>)
 8002a72:	4293      	cmp	r3, r2
 8002a74:	dd02      	ble.n	8002a7c <__ieee754_powf+0x520>
 8002a76:	eddf 7a19 	vldr	s15, [pc, #100]	; 8002adc <__ieee754_powf+0x580>
 8002a7a:	e679      	b.n	8002770 <__ieee754_powf+0x214>
 8002a7c:	d108      	bne.n	8002a90 <__ieee754_powf+0x534>
 8002a7e:	ee76 6ac7 	vsub.f32	s13, s13, s14
 8002a82:	eef4 7ae6 	vcmpe.f32	s15, s13
 8002a86:	eef1 fa10 	vmrs	APSR_nzcv, fpscr
 8002a8a:	f63f af79 	bhi.w	8002980 <__ieee754_powf+0x424>
 8002a8e:	e7f2      	b.n	8002a76 <__ieee754_powf+0x51a>
 8002a90:	f1b3 5f7c 	cmp.w	r3, #1056964608	; 0x3f000000
 8002a94:	f73f af74 	bgt.w	8002980 <__ieee754_powf+0x424>
 8002a98:	2000      	movs	r0, #0
 8002a9a:	e78d      	b.n	80029b8 <__ieee754_powf+0x45c>
 8002a9c:	ee00 3a10 	vmov	s0, r3
 8002aa0:	e7e3      	b.n	8002a6a <__ieee754_powf+0x50e>
 8002aa2:	eeb7 0a00 	vmov.f32	s0, #112	; 0x3f800000  1.0
 8002aa6:	e5ab      	b.n	8002600 <__ieee754_powf+0xa4>
 8002aa8:	eeb0 0a68 	vmov.f32	s0, s17
 8002aac:	e5a8      	b.n	8002600 <__ieee754_powf+0xa4>
 8002aae:	eeb0 0a48 	vmov.f32	s0, s16
 8002ab2:	e5a5      	b.n	8002600 <__ieee754_powf+0xa4>
 8002ab4:	007fffff 	.word	0x007fffff
 8002ab8:	3f317218 	.word	0x3f317218
 8002abc:	35bfbe8c 	.word	0x35bfbe8c
 8002ac0:	3f317200 	.word	0x3f317200
 8002ac4:	3331bb4c 	.word	0x3331bb4c
 8002ac8:	b5ddea0e 	.word	0xb5ddea0e
 8002acc:	388ab355 	.word	0x388ab355
 8002ad0:	bb360b61 	.word	0xbb360b61
 8002ad4:	3e2aaaab 	.word	0x3e2aaaab
 8002ad8:	43160000 	.word	0x43160000
 8002adc:	0da24260 	.word	0x0da24260

08002ae0 <__ieee754_sqrtf>:
 8002ae0:	ee10 2a10 	vmov	r2, s0
 8002ae4:	f022 4100 	bic.w	r1, r2, #2147483648	; 0x80000000
 8002ae8:	f1b1 4fff 	cmp.w	r1, #2139095040	; 0x7f800000
 8002aec:	b570      	push	{r4, r5, r6, lr}
 8002aee:	d302      	bcc.n	8002af6 <__ieee754_sqrtf+0x16>
 8002af0:	eea0 0a00 	vfma.f32	s0, s0, s0
 8002af4:	bd70      	pop	{r4, r5, r6, pc}
 8002af6:	b3b1      	cbz	r1, 8002b66 <__ieee754_sqrtf+0x86>
 8002af8:	2a00      	cmp	r2, #0
 8002afa:	da04      	bge.n	8002b06 <__ieee754_sqrtf+0x26>
 8002afc:	ee70 7a40 	vsub.f32	s15, s0, s0
 8002b00:	ee87 0aa7 	vdiv.f32	s0, s15, s15
 8002b04:	bd70      	pop	{r4, r5, r6, pc}
 8002b06:	f5b1 0f00 	cmp.w	r1, #8388608	; 0x800000
 8002b0a:	ea4f 53e2 	mov.w	r3, r2, asr #23
 8002b0e:	d204      	bcs.n	8002b1a <__ieee754_sqrtf+0x3a>
 8002b10:	2100      	movs	r1, #0
 8002b12:	0210      	lsls	r0, r2, #8
 8002b14:	d528      	bpl.n	8002b68 <__ieee754_sqrtf+0x88>
 8002b16:	3901      	subs	r1, #1
 8002b18:	1a5b      	subs	r3, r3, r1
 8002b1a:	3b7f      	subs	r3, #127	; 0x7f
 8002b1c:	f3c2 0216 	ubfx	r2, r2, #0, #23
 8002b20:	07d9      	lsls	r1, r3, #31
 8002b22:	f442 0200 	orr.w	r2, r2, #8388608	; 0x800000
 8002b26:	bf48      	it	mi
 8002b28:	0052      	lslmi	r2, r2, #1
 8002b2a:	1059      	asrs	r1, r3, #1
 8002b2c:	2300      	movs	r3, #0
 8002b2e:	0052      	lsls	r2, r2, #1
 8002b30:	2419      	movs	r4, #25
 8002b32:	461e      	mov	r6, r3
 8002b34:	f04f 7080 	mov.w	r0, #16777216	; 0x1000000
 8002b38:	1835      	adds	r5, r6, r0
 8002b3a:	4295      	cmp	r5, r2
 8002b3c:	bfde      	ittt	le
 8002b3e:	182e      	addle	r6, r5, r0
 8002b40:	1b52      	suble	r2, r2, r5
 8002b42:	181b      	addle	r3, r3, r0
 8002b44:	3c01      	subs	r4, #1
 8002b46:	ea4f 0242 	mov.w	r2, r2, lsl #1
 8002b4a:	ea4f 0050 	mov.w	r0, r0, lsr #1
 8002b4e:	d1f3      	bne.n	8002b38 <__ieee754_sqrtf+0x58>
 8002b50:	b112      	cbz	r2, 8002b58 <__ieee754_sqrtf+0x78>
 8002b52:	3301      	adds	r3, #1
 8002b54:	f023 0301 	bic.w	r3, r3, #1
 8002b58:	105b      	asrs	r3, r3, #1
 8002b5a:	f103 537c 	add.w	r3, r3, #1056964608	; 0x3f000000
 8002b5e:	eb03 53c1 	add.w	r3, r3, r1, lsl #23
 8002b62:	ee00 3a10 	vmov	s0, r3
 8002b66:	bd70      	pop	{r4, r5, r6, pc}
 8002b68:	0052      	lsls	r2, r2, #1
 8002b6a:	3101      	adds	r1, #1
 8002b6c:	e7d1      	b.n	8002b12 <__ieee754_sqrtf+0x32>
	...

08002b70 <__kernel_cos>:
 8002b70:	e92d 4ff0 	stmdb	sp!, {r4, r5, r6, r7, r8, r9, sl, fp, lr}
 8002b74:	ec59 8b10 	vmov	r8, r9, d0
 8002b78:	f029 4700 	bic.w	r7, r9, #2147483648	; 0x80000000
 8002b7c:	b085      	sub	sp, #20
 8002b7e:	f1b7 5f79 	cmp.w	r7, #1044381696	; 0x3e400000
 8002b82:	ed8d 1b00 	vstr	d1, [sp]
 8002b86:	da07      	bge.n	8002b98 <__kernel_cos+0x28>
 8002b88:	ee10 0a10 	vmov	r0, s0
 8002b8c:	4649      	mov	r1, r9
 8002b8e:	f7fd ff6d 	bl	8000a6c <__aeabi_d2iz>
 8002b92:	2800      	cmp	r0, #0
 8002b94:	f000 80aa 	beq.w	8002cec <__kernel_cos+0x17c>
 8002b98:	4642      	mov	r2, r8
 8002b9a:	464b      	mov	r3, r9
 8002b9c:	4640      	mov	r0, r8
 8002b9e:	4649      	mov	r1, r9
 8002ba0:	f7fd fcca 	bl	8000538 <__aeabi_dmul>
 8002ba4:	a359      	add	r3, pc, #356	; (adr r3, 8002d0c <__kernel_cos+0x19c>)
 8002ba6:	e9d3 2300 	ldrd	r2, r3, [r3]
 8002baa:	4604      	mov	r4, r0
 8002bac:	460d      	mov	r5, r1
 8002bae:	f7fd fcc3 	bl	8000538 <__aeabi_dmul>
 8002bb2:	a358      	add	r3, pc, #352	; (adr r3, 8002d14 <__kernel_cos+0x1a4>)
 8002bb4:	e9d3 2300 	ldrd	r2, r3, [r3]
 8002bb8:	f7fd fb0c 	bl	80001d4 <__adddf3>
 8002bbc:	4622      	mov	r2, r4
 8002bbe:	462b      	mov	r3, r5
 8002bc0:	f7fd fcba 	bl	8000538 <__aeabi_dmul>
 8002bc4:	a355      	add	r3, pc, #340	; (adr r3, 8002d1c <__kernel_cos+0x1ac>)
 8002bc6:	e9d3 2300 	ldrd	r2, r3, [r3]
 8002bca:	f7fd fb01 	bl	80001d0 <__aeabi_dsub>
 8002bce:	4622      	mov	r2, r4
 8002bd0:	462b      	mov	r3, r5
 8002bd2:	f7fd fcb1 	bl	8000538 <__aeabi_dmul>
 8002bd6:	a353      	add	r3, pc, #332	; (adr r3, 8002d24 <__kernel_cos+0x1b4>)
 8002bd8:	e9d3 2300 	ldrd	r2, r3, [r3]
 8002bdc:	f7fd fafa 	bl	80001d4 <__adddf3>
 8002be0:	4622      	mov	r2, r4
 8002be2:	462b      	mov	r3, r5
 8002be4:	f7fd fca8 	bl	8000538 <__aeabi_dmul>
 8002be8:	a350      	add	r3, pc, #320	; (adr r3, 8002d2c <__kernel_cos+0x1bc>)
 8002bea:	e9d3 2300 	ldrd	r2, r3, [r3]
 8002bee:	f7fd faef 	bl	80001d0 <__aeabi_dsub>
 8002bf2:	4622      	mov	r2, r4
 8002bf4:	462b      	mov	r3, r5
 8002bf6:	f7fd fc9f 	bl	8000538 <__aeabi_dmul>
 8002bfa:	a34e      	add	r3, pc, #312	; (adr r3, 8002d34 <__kernel_cos+0x1c4>)
 8002bfc:	e9d3 2300 	ldrd	r2, r3, [r3]
 8002c00:	f7fd fae8 	bl	80001d4 <__adddf3>
 8002c04:	462b      	mov	r3, r5
 8002c06:	4622      	mov	r2, r4
 8002c08:	f7fd fc96 	bl	8000538 <__aeabi_dmul>
 8002c0c:	4b3a      	ldr	r3, [pc, #232]	; (8002cf8 <__kernel_cos+0x188>)
 8002c0e:	429f      	cmp	r7, r3
 8002c10:	4682      	mov	sl, r0
 8002c12:	468b      	mov	fp, r1
 8002c14:	dc2c      	bgt.n	8002c70 <__kernel_cos+0x100>
 8002c16:	2200      	movs	r2, #0
 8002c18:	4b38      	ldr	r3, [pc, #224]	; (8002cfc <__kernel_cos+0x18c>)
 8002c1a:	4620      	mov	r0, r4
 8002c1c:	4629      	mov	r1, r5
 8002c1e:	f7fd fc8b 	bl	8000538 <__aeabi_dmul>
 8002c22:	4652      	mov	r2, sl
 8002c24:	4606      	mov	r6, r0
 8002c26:	460f      	mov	r7, r1
 8002c28:	465b      	mov	r3, fp
 8002c2a:	4620      	mov	r0, r4
 8002c2c:	4629      	mov	r1, r5
 8002c2e:	f7fd fc83 	bl	8000538 <__aeabi_dmul>
 8002c32:	e9dd 2300 	ldrd	r2, r3, [sp]
 8002c36:	4604      	mov	r4, r0
 8002c38:	460d      	mov	r5, r1
 8002c3a:	4640      	mov	r0, r8
 8002c3c:	4649      	mov	r1, r9
 8002c3e:	f7fd fc7b 	bl	8000538 <__aeabi_dmul>
 8002c42:	4602      	mov	r2, r0
 8002c44:	460b      	mov	r3, r1
 8002c46:	4620      	mov	r0, r4
 8002c48:	4629      	mov	r1, r5
 8002c4a:	f7fd fac1 	bl	80001d0 <__aeabi_dsub>
 8002c4e:	4602      	mov	r2, r0
 8002c50:	460b      	mov	r3, r1
 8002c52:	4630      	mov	r0, r6
 8002c54:	4639      	mov	r1, r7
 8002c56:	f7fd fabb 	bl	80001d0 <__aeabi_dsub>
 8002c5a:	460b      	mov	r3, r1
 8002c5c:	4928      	ldr	r1, [pc, #160]	; (8002d00 <__kernel_cos+0x190>)
 8002c5e:	4602      	mov	r2, r0
 8002c60:	2000      	movs	r0, #0
 8002c62:	f7fd fab5 	bl	80001d0 <__aeabi_dsub>
 8002c66:	ec41 0b10 	vmov	d0, r0, r1
 8002c6a:	b005      	add	sp, #20
 8002c6c:	e8bd 8ff0 	ldmia.w	sp!, {r4, r5, r6, r7, r8, r9, sl, fp, pc}
 8002c70:	4b24      	ldr	r3, [pc, #144]	; (8002d04 <__kernel_cos+0x194>)
 8002c72:	4923      	ldr	r1, [pc, #140]	; (8002d00 <__kernel_cos+0x190>)
 8002c74:	429f      	cmp	r7, r3
 8002c76:	bfd7      	itett	le
 8002c78:	f5a7 1300 	suble.w	r3, r7, #2097152	; 0x200000
 8002c7c:	4f22      	ldrgt	r7, [pc, #136]	; (8002d08 <__kernel_cos+0x198>)
 8002c7e:	2200      	movle	r2, #0
 8002c80:	4616      	movle	r6, r2
 8002c82:	bfd4      	ite	le
 8002c84:	461f      	movle	r7, r3
 8002c86:	2600      	movgt	r6, #0
 8002c88:	4632      	mov	r2, r6
 8002c8a:	463b      	mov	r3, r7
 8002c8c:	2000      	movs	r0, #0
 8002c8e:	f7fd fa9f 	bl	80001d0 <__aeabi_dsub>
 8002c92:	2200      	movs	r2, #0
 8002c94:	e9cd 0102 	strd	r0, r1, [sp, #8]
 8002c98:	4b18      	ldr	r3, [pc, #96]	; (8002cfc <__kernel_cos+0x18c>)
 8002c9a:	4620      	mov	r0, r4
 8002c9c:	4629      	mov	r1, r5
 8002c9e:	f7fd fc4b 	bl	8000538 <__aeabi_dmul>
 8002ca2:	4632      	mov	r2, r6
 8002ca4:	463b      	mov	r3, r7
 8002ca6:	f7fd fa93 	bl	80001d0 <__aeabi_dsub>
 8002caa:	4652      	mov	r2, sl
 8002cac:	4606      	mov	r6, r0
 8002cae:	460f      	mov	r7, r1
 8002cb0:	465b      	mov	r3, fp
 8002cb2:	4620      	mov	r0, r4
 8002cb4:	4629      	mov	r1, r5
 8002cb6:	f7fd fc3f 	bl	8000538 <__aeabi_dmul>
 8002cba:	e9dd 2300 	ldrd	r2, r3, [sp]
 8002cbe:	4604      	mov	r4, r0
 8002cc0:	460d      	mov	r5, r1
 8002cc2:	4640      	mov	r0, r8
 8002cc4:	4649      	mov	r1, r9
 8002cc6:	f7fd fc37 	bl	8000538 <__aeabi_dmul>
 8002cca:	4602      	mov	r2, r0
 8002ccc:	460b      	mov	r3, r1
 8002cce:	4620      	mov	r0, r4
 8002cd0:	4629      	mov	r1, r5
 8002cd2:	f7fd fa7d 	bl	80001d0 <__aeabi_dsub>
 8002cd6:	4602      	mov	r2, r0
 8002cd8:	460b      	mov	r3, r1
 8002cda:	4630      	mov	r0, r6
 8002cdc:	4639      	mov	r1, r7
 8002cde:	f7fd fa77 	bl	80001d0 <__aeabi_dsub>
 8002ce2:	4602      	mov	r2, r0
 8002ce4:	460b      	mov	r3, r1
 8002ce6:	e9dd 0102 	ldrd	r0, r1, [sp, #8]
 8002cea:	e7ba      	b.n	8002c62 <__kernel_cos+0xf2>
 8002cec:	2000      	movs	r0, #0
 8002cee:	4904      	ldr	r1, [pc, #16]	; (8002d00 <__kernel_cos+0x190>)
 8002cf0:	e7b9      	b.n	8002c66 <__kernel_cos+0xf6>
 8002cf2:	bf00      	nop
 8002cf4:	f3af 8000 	nop.w
 8002cf8:	3fd33332 	.word	0x3fd33332
 8002cfc:	3fe00000 	.word	0x3fe00000
 8002d00:	3ff00000 	.word	0x3ff00000
 8002d04:	3fe90000 	.word	0x3fe90000
 8002d08:	3fd20000 	.word	0x3fd20000
 8002d0c:	be8838d4 	.word	0xbe8838d4
 8002d10:	bda8fae9 	.word	0xbda8fae9
 8002d14:	bdb4b1c4 	.word	0xbdb4b1c4
 8002d18:	3e21ee9e 	.word	0x3e21ee9e
 8002d1c:	809c52ad 	.word	0x809c52ad
 8002d20:	3e927e4f 	.word	0x3e927e4f
 8002d24:	19cb1590 	.word	0x19cb1590
 8002d28:	3efa01a0 	.word	0x3efa01a0
 8002d2c:	16c15177 	.word	0x16c15177
 8002d30:	3f56c16c 	.word	0x3f56c16c
 8002d34:	5555554c 	.word	0x5555554c
 8002d38:	3fa55555 	.word	0x3fa55555
 8002d3c:	00000000 	.word	0x00000000

08002d40 <__kernel_rem_pio2>:
 8002d40:	e92d 4ff0 	stmdb	sp!, {r4, r5, r6, r7, r8, r9, sl, fp, lr}
 8002d44:	ed2d 8b02 	vpush	{d8}
 8002d48:	f5ad 7d19 	sub.w	sp, sp, #612	; 0x264
 8002d4c:	1ed4      	subs	r4, r2, #3
 8002d4e:	9306      	str	r3, [sp, #24]
 8002d50:	9102      	str	r1, [sp, #8]
 8002d52:	4bc3      	ldr	r3, [pc, #780]	; (8003060 <__kernel_rem_pio2+0x320>)
 8002d54:	99a4      	ldr	r1, [sp, #656]	; 0x290
 8002d56:	9009      	str	r0, [sp, #36]	; 0x24
 8002d58:	f853 3021 	ldr.w	r3, [r3, r1, lsl #2]
 8002d5c:	9300      	str	r3, [sp, #0]
 8002d5e:	9b06      	ldr	r3, [sp, #24]
 8002d60:	3b01      	subs	r3, #1
 8002d62:	9304      	str	r3, [sp, #16]
 8002d64:	2318      	movs	r3, #24
 8002d66:	fb94 f4f3 	sdiv	r4, r4, r3
 8002d6a:	f06f 0317 	mvn.w	r3, #23
 8002d6e:	ea24 74e4 	bic.w	r4, r4, r4, asr #31
 8002d72:	fb04 3303 	mla	r3, r4, r3, r3
 8002d76:	eb03 0a02 	add.w	sl, r3, r2
 8002d7a:	9b00      	ldr	r3, [sp, #0]
 8002d7c:	9a04      	ldr	r2, [sp, #16]
 8002d7e:	ed9f 8bb4 	vldr	d8, [pc, #720]	; 8003050 <__kernel_rem_pio2+0x310>
 8002d82:	eb03 0802 	add.w	r8, r3, r2
 8002d86:	9ba5      	ldr	r3, [sp, #660]	; 0x294
 8002d88:	1aa7      	subs	r7, r4, r2
 8002d8a:	ae20      	add	r6, sp, #128	; 0x80
 8002d8c:	eb03 0987 	add.w	r9, r3, r7, lsl #2
 8002d90:	2500      	movs	r5, #0
 8002d92:	4545      	cmp	r5, r8
 8002d94:	dd13      	ble.n	8002dbe <__kernel_rem_pio2+0x7e>
 8002d96:	ed9f 8bae 	vldr	d8, [pc, #696]	; 8003050 <__kernel_rem_pio2+0x310>
 8002d9a:	f50d 7be0 	add.w	fp, sp, #448	; 0x1c0
 8002d9e:	2600      	movs	r6, #0
 8002da0:	9b00      	ldr	r3, [sp, #0]
 8002da2:	429e      	cmp	r6, r3
 8002da4:	dc32      	bgt.n	8002e0c <__kernel_rem_pio2+0xcc>
 8002da6:	9b09      	ldr	r3, [sp, #36]	; 0x24
 8002da8:	9303      	str	r3, [sp, #12]
 8002daa:	9b06      	ldr	r3, [sp, #24]
 8002dac:	199d      	adds	r5, r3, r6
 8002dae:	ab20      	add	r3, sp, #128	; 0x80
 8002db0:	eb03 03c5 	add.w	r3, r3, r5, lsl #3
 8002db4:	9308      	str	r3, [sp, #32]
 8002db6:	ec59 8b18 	vmov	r8, r9, d8
 8002dba:	2700      	movs	r7, #0
 8002dbc:	e01f      	b.n	8002dfe <__kernel_rem_pio2+0xbe>
 8002dbe:	42ef      	cmn	r7, r5
 8002dc0:	d407      	bmi.n	8002dd2 <__kernel_rem_pio2+0x92>
 8002dc2:	f859 0025 	ldr.w	r0, [r9, r5, lsl #2]
 8002dc6:	f7fd fb51 	bl	800046c <__aeabi_i2d>
 8002dca:	e8e6 0102 	strd	r0, r1, [r6], #8
 8002dce:	3501      	adds	r5, #1
 8002dd0:	e7df      	b.n	8002d92 <__kernel_rem_pio2+0x52>
 8002dd2:	ec51 0b18 	vmov	r0, r1, d8
 8002dd6:	e7f8      	b.n	8002dca <__kernel_rem_pio2+0x8a>
 8002dd8:	9908      	ldr	r1, [sp, #32]
 8002dda:	9d03      	ldr	r5, [sp, #12]
 8002ddc:	e971 2302 	ldrd	r2, r3, [r1, #-8]!
 8002de0:	9108      	str	r1, [sp, #32]
 8002de2:	e8f5 0102 	ldrd	r0, r1, [r5], #8
 8002de6:	9503      	str	r5, [sp, #12]
 8002de8:	f7fd fba6 	bl	8000538 <__aeabi_dmul>
 8002dec:	4602      	mov	r2, r0
 8002dee:	460b      	mov	r3, r1
 8002df0:	4640      	mov	r0, r8
 8002df2:	4649      	mov	r1, r9
 8002df4:	f7fd f9ee 	bl	80001d4 <__adddf3>
 8002df8:	3701      	adds	r7, #1
 8002dfa:	4680      	mov	r8, r0
 8002dfc:	4689      	mov	r9, r1
 8002dfe:	9b04      	ldr	r3, [sp, #16]
 8002e00:	429f      	cmp	r7, r3
 8002e02:	dde9      	ble.n	8002dd8 <__kernel_rem_pio2+0x98>
 8002e04:	e8eb 8902 	strd	r8, r9, [fp], #8
 8002e08:	3601      	adds	r6, #1
 8002e0a:	e7c9      	b.n	8002da0 <__kernel_rem_pio2+0x60>
 8002e0c:	9b00      	ldr	r3, [sp, #0]
 8002e0e:	9f00      	ldr	r7, [sp, #0]
 8002e10:	aa0c      	add	r2, sp, #48	; 0x30
 8002e12:	eb02 0383 	add.w	r3, r2, r3, lsl #2
 8002e16:	930b      	str	r3, [sp, #44]	; 0x2c
 8002e18:	9ba5      	ldr	r3, [sp, #660]	; 0x294
 8002e1a:	eb03 0384 	add.w	r3, r3, r4, lsl #2
 8002e1e:	930a      	str	r3, [sp, #40]	; 0x28
 8002e20:	ab98      	add	r3, sp, #608	; 0x260
 8002e22:	f107 5b00 	add.w	fp, r7, #536870912	; 0x20000000
 8002e26:	eb03 03c7 	add.w	r3, r3, r7, lsl #3
 8002e2a:	f10b 3bff 	add.w	fp, fp, #4294967295
 8002e2e:	e953 8928 	ldrd	r8, r9, [r3, #-160]	; 0xa0
 8002e32:	ea4f 03cb 	mov.w	r3, fp, lsl #3
 8002e36:	9308      	str	r3, [sp, #32]
 8002e38:	9a08      	ldr	r2, [sp, #32]
 8002e3a:	ab98      	add	r3, sp, #608	; 0x260
 8002e3c:	4413      	add	r3, r2
 8002e3e:	f1a3 0b98 	sub.w	fp, r3, #152	; 0x98
 8002e42:	2600      	movs	r6, #0
 8002e44:	1bbb      	subs	r3, r7, r6
 8002e46:	2b00      	cmp	r3, #0
 8002e48:	dc77      	bgt.n	8002f3a <__kernel_rem_pio2+0x1fa>
 8002e4a:	ec49 8b10 	vmov	d0, r8, r9
 8002e4e:	4650      	mov	r0, sl
 8002e50:	f000 fc9a 	bl	8003788 <scalbn>
 8002e54:	ec55 4b10 	vmov	r4, r5, d0
 8002e58:	2200      	movs	r2, #0
 8002e5a:	f04f 537f 	mov.w	r3, #1069547520	; 0x3fc00000
 8002e5e:	ee10 0a10 	vmov	r0, s0
 8002e62:	4629      	mov	r1, r5
 8002e64:	f7fd fb68 	bl	8000538 <__aeabi_dmul>
 8002e68:	ec41 0b10 	vmov	d0, r0, r1
 8002e6c:	f000 fb7c 	bl	8003568 <floor>
 8002e70:	2200      	movs	r2, #0
 8002e72:	ec51 0b10 	vmov	r0, r1, d0
 8002e76:	4b7b      	ldr	r3, [pc, #492]	; (8003064 <__kernel_rem_pio2+0x324>)
 8002e78:	f7fd fb5e 	bl	8000538 <__aeabi_dmul>
 8002e7c:	4602      	mov	r2, r0
 8002e7e:	460b      	mov	r3, r1
 8002e80:	4620      	mov	r0, r4
 8002e82:	4629      	mov	r1, r5
 8002e84:	f7fd f9a4 	bl	80001d0 <__aeabi_dsub>
 8002e88:	460d      	mov	r5, r1
 8002e8a:	4604      	mov	r4, r0
 8002e8c:	f7fd fdee 	bl	8000a6c <__aeabi_d2iz>
 8002e90:	9003      	str	r0, [sp, #12]
 8002e92:	f7fd faeb 	bl	800046c <__aeabi_i2d>
 8002e96:	4602      	mov	r2, r0
 8002e98:	460b      	mov	r3, r1
 8002e9a:	4620      	mov	r0, r4
 8002e9c:	4629      	mov	r1, r5
 8002e9e:	f7fd f997 	bl	80001d0 <__aeabi_dsub>
 8002ea2:	f1ba 0f00 	cmp.w	sl, #0
 8002ea6:	4680      	mov	r8, r0
 8002ea8:	4689      	mov	r9, r1
 8002eaa:	dd6b      	ble.n	8002f84 <__kernel_rem_pio2+0x244>
 8002eac:	1e7a      	subs	r2, r7, #1
 8002eae:	ab0c      	add	r3, sp, #48	; 0x30
 8002eb0:	f1ca 0118 	rsb	r1, sl, #24
 8002eb4:	f853 0022 	ldr.w	r0, [r3, r2, lsl #2]
 8002eb8:	9c03      	ldr	r4, [sp, #12]
 8002eba:	fa40 f301 	asr.w	r3, r0, r1
 8002ebe:	441c      	add	r4, r3
 8002ec0:	408b      	lsls	r3, r1
 8002ec2:	1ac0      	subs	r0, r0, r3
 8002ec4:	ab0c      	add	r3, sp, #48	; 0x30
 8002ec6:	9403      	str	r4, [sp, #12]
 8002ec8:	f843 0022 	str.w	r0, [r3, r2, lsl #2]
 8002ecc:	f1ca 0317 	rsb	r3, sl, #23
 8002ed0:	fa40 fb03 	asr.w	fp, r0, r3
 8002ed4:	f1bb 0f00 	cmp.w	fp, #0
 8002ed8:	dd62      	ble.n	8002fa0 <__kernel_rem_pio2+0x260>
 8002eda:	9b03      	ldr	r3, [sp, #12]
 8002edc:	2200      	movs	r2, #0
 8002ede:	3301      	adds	r3, #1
 8002ee0:	9303      	str	r3, [sp, #12]
 8002ee2:	4614      	mov	r4, r2
 8002ee4:	f06f 417f 	mvn.w	r1, #4278190080	; 0xff000000
 8002ee8:	4297      	cmp	r7, r2
 8002eea:	f300 8089 	bgt.w	8003000 <__kernel_rem_pio2+0x2c0>
 8002eee:	f1ba 0f00 	cmp.w	sl, #0
 8002ef2:	dd07      	ble.n	8002f04 <__kernel_rem_pio2+0x1c4>
 8002ef4:	f1ba 0f01 	cmp.w	sl, #1
 8002ef8:	f000 8096 	beq.w	8003028 <__kernel_rem_pio2+0x2e8>
 8002efc:	f1ba 0f02 	cmp.w	sl, #2
 8002f00:	f000 809c 	beq.w	800303c <__kernel_rem_pio2+0x2fc>
 8002f04:	f1bb 0f02 	cmp.w	fp, #2
 8002f08:	d14a      	bne.n	8002fa0 <__kernel_rem_pio2+0x260>
 8002f0a:	4642      	mov	r2, r8
 8002f0c:	464b      	mov	r3, r9
 8002f0e:	2000      	movs	r0, #0
 8002f10:	4955      	ldr	r1, [pc, #340]	; (8003068 <__kernel_rem_pio2+0x328>)
 8002f12:	f7fd f95d 	bl	80001d0 <__aeabi_dsub>
 8002f16:	4680      	mov	r8, r0
 8002f18:	4689      	mov	r9, r1
 8002f1a:	2c00      	cmp	r4, #0
 8002f1c:	d040      	beq.n	8002fa0 <__kernel_rem_pio2+0x260>
 8002f1e:	4650      	mov	r0, sl
 8002f20:	ed9f 0b4d 	vldr	d0, [pc, #308]	; 8003058 <__kernel_rem_pio2+0x318>
 8002f24:	f000 fc30 	bl	8003788 <scalbn>
 8002f28:	4640      	mov	r0, r8
 8002f2a:	4649      	mov	r1, r9
 8002f2c:	ec53 2b10 	vmov	r2, r3, d0
 8002f30:	f7fd f94e 	bl	80001d0 <__aeabi_dsub>
 8002f34:	4680      	mov	r8, r0
 8002f36:	4689      	mov	r9, r1
 8002f38:	e032      	b.n	8002fa0 <__kernel_rem_pio2+0x260>
 8002f3a:	2200      	movs	r2, #0
 8002f3c:	4b4b      	ldr	r3, [pc, #300]	; (800306c <__kernel_rem_pio2+0x32c>)
 8002f3e:	4640      	mov	r0, r8
 8002f40:	4649      	mov	r1, r9
 8002f42:	f7fd faf9 	bl	8000538 <__aeabi_dmul>
 8002f46:	f7fd fd91 	bl	8000a6c <__aeabi_d2iz>
 8002f4a:	f7fd fa8f 	bl	800046c <__aeabi_i2d>
 8002f4e:	2200      	movs	r2, #0
 8002f50:	4b47      	ldr	r3, [pc, #284]	; (8003070 <__kernel_rem_pio2+0x330>)
 8002f52:	4604      	mov	r4, r0
 8002f54:	460d      	mov	r5, r1
 8002f56:	f7fd faef 	bl	8000538 <__aeabi_dmul>
 8002f5a:	4602      	mov	r2, r0
 8002f5c:	460b      	mov	r3, r1
 8002f5e:	4640      	mov	r0, r8
 8002f60:	4649      	mov	r1, r9
 8002f62:	f7fd f935 	bl	80001d0 <__aeabi_dsub>
 8002f66:	f7fd fd81 	bl	8000a6c <__aeabi_d2iz>
 8002f6a:	ab0c      	add	r3, sp, #48	; 0x30
 8002f6c:	4629      	mov	r1, r5
 8002f6e:	f843 0026 	str.w	r0, [r3, r6, lsl #2]
 8002f72:	e97b 2302 	ldrd	r2, r3, [fp, #-8]!
 8002f76:	4620      	mov	r0, r4
 8002f78:	f7fd f92c 	bl	80001d4 <__adddf3>
 8002f7c:	3601      	adds	r6, #1
 8002f7e:	4680      	mov	r8, r0
 8002f80:	4689      	mov	r9, r1
 8002f82:	e75f      	b.n	8002e44 <__kernel_rem_pio2+0x104>
 8002f84:	d106      	bne.n	8002f94 <__kernel_rem_pio2+0x254>
 8002f86:	1e7b      	subs	r3, r7, #1
 8002f88:	aa0c      	add	r2, sp, #48	; 0x30
 8002f8a:	f852 0023 	ldr.w	r0, [r2, r3, lsl #2]
 8002f8e:	ea4f 5be0 	mov.w	fp, r0, asr #23
 8002f92:	e79f      	b.n	8002ed4 <__kernel_rem_pio2+0x194>
 8002f94:	2200      	movs	r2, #0
 8002f96:	4b37      	ldr	r3, [pc, #220]	; (8003074 <__kernel_rem_pio2+0x334>)
 8002f98:	f7fd fd54 	bl	8000a44 <__aeabi_dcmpge>
 8002f9c:	bb68      	cbnz	r0, 8002ffa <__kernel_rem_pio2+0x2ba>
 8002f9e:	4683      	mov	fp, r0
 8002fa0:	2200      	movs	r2, #0
 8002fa2:	2300      	movs	r3, #0
 8002fa4:	4640      	mov	r0, r8
 8002fa6:	4649      	mov	r1, r9
 8002fa8:	f7fd fd2e 	bl	8000a08 <__aeabi_dcmpeq>
 8002fac:	2800      	cmp	r0, #0
 8002fae:	f000 80c1 	beq.w	8003134 <__kernel_rem_pio2+0x3f4>
 8002fb2:	1e7c      	subs	r4, r7, #1
 8002fb4:	4623      	mov	r3, r4
 8002fb6:	2200      	movs	r2, #0
 8002fb8:	9900      	ldr	r1, [sp, #0]
 8002fba:	428b      	cmp	r3, r1
 8002fbc:	da5c      	bge.n	8003078 <__kernel_rem_pio2+0x338>
 8002fbe:	2a00      	cmp	r2, #0
 8002fc0:	f040 808b 	bne.w	80030da <__kernel_rem_pio2+0x39a>
 8002fc4:	2401      	movs	r4, #1
 8002fc6:	f06f 0203 	mvn.w	r2, #3
 8002fca:	fb02 f304 	mul.w	r3, r2, r4
 8002fce:	990b      	ldr	r1, [sp, #44]	; 0x2c
 8002fd0:	58cb      	ldr	r3, [r1, r3]
 8002fd2:	2b00      	cmp	r3, #0
 8002fd4:	d056      	beq.n	8003084 <__kernel_rem_pio2+0x344>
 8002fd6:	9b08      	ldr	r3, [sp, #32]
 8002fd8:	aa98      	add	r2, sp, #608	; 0x260
 8002fda:	4413      	add	r3, r2
 8002fdc:	f1a3 0b90 	sub.w	fp, r3, #144	; 0x90
 8002fe0:	9b06      	ldr	r3, [sp, #24]
 8002fe2:	19dd      	adds	r5, r3, r7
 8002fe4:	ab20      	add	r3, sp, #128	; 0x80
 8002fe6:	eb03 05c5 	add.w	r5, r3, r5, lsl #3
 8002fea:	19e3      	adds	r3, r4, r7
 8002fec:	1c7e      	adds	r6, r7, #1
 8002fee:	9303      	str	r3, [sp, #12]
 8002ff0:	9b03      	ldr	r3, [sp, #12]
 8002ff2:	429e      	cmp	r6, r3
 8002ff4:	dd48      	ble.n	8003088 <__kernel_rem_pio2+0x348>
 8002ff6:	461f      	mov	r7, r3
 8002ff8:	e712      	b.n	8002e20 <__kernel_rem_pio2+0xe0>
 8002ffa:	f04f 0b02 	mov.w	fp, #2
 8002ffe:	e76c      	b.n	8002eda <__kernel_rem_pio2+0x19a>
 8003000:	ab0c      	add	r3, sp, #48	; 0x30
 8003002:	f853 3022 	ldr.w	r3, [r3, r2, lsl #2]
 8003006:	b94c      	cbnz	r4, 800301c <__kernel_rem_pio2+0x2dc>
 8003008:	b12b      	cbz	r3, 8003016 <__kernel_rem_pio2+0x2d6>
 800300a:	a80c      	add	r0, sp, #48	; 0x30
 800300c:	f1c3 7380 	rsb	r3, r3, #16777216	; 0x1000000
 8003010:	f840 3022 	str.w	r3, [r0, r2, lsl #2]
 8003014:	2301      	movs	r3, #1
 8003016:	3201      	adds	r2, #1
 8003018:	461c      	mov	r4, r3
 800301a:	e765      	b.n	8002ee8 <__kernel_rem_pio2+0x1a8>
 800301c:	a80c      	add	r0, sp, #48	; 0x30
 800301e:	1acb      	subs	r3, r1, r3
 8003020:	f840 3022 	str.w	r3, [r0, r2, lsl #2]
 8003024:	4623      	mov	r3, r4
 8003026:	e7f6      	b.n	8003016 <__kernel_rem_pio2+0x2d6>
 8003028:	1e7a      	subs	r2, r7, #1
 800302a:	ab0c      	add	r3, sp, #48	; 0x30
 800302c:	f853 3022 	ldr.w	r3, [r3, r2, lsl #2]
 8003030:	f3c3 0316 	ubfx	r3, r3, #0, #23
 8003034:	a90c      	add	r1, sp, #48	; 0x30
 8003036:	f841 3022 	str.w	r3, [r1, r2, lsl #2]
 800303a:	e763      	b.n	8002f04 <__kernel_rem_pio2+0x1c4>
 800303c:	1e7a      	subs	r2, r7, #1
 800303e:	ab0c      	add	r3, sp, #48	; 0x30
 8003040:	f853 3022 	ldr.w	r3, [r3, r2, lsl #2]
 8003044:	f3c3 0315 	ubfx	r3, r3, #0, #22
 8003048:	e7f4      	b.n	8003034 <__kernel_rem_pio2+0x2f4>
 800304a:	bf00      	nop
 800304c:	f3af 8000 	nop.w
	...
 800305c:	3ff00000 	.word	0x3ff00000
 8003060:	08008bf8 	.word	0x08008bf8
 8003064:	40200000 	.word	0x40200000
 8003068:	3ff00000 	.word	0x3ff00000
 800306c:	3e700000 	.word	0x3e700000
 8003070:	41700000 	.word	0x41700000
 8003074:	3fe00000 	.word	0x3fe00000
 8003078:	a90c      	add	r1, sp, #48	; 0x30
 800307a:	f851 1023 	ldr.w	r1, [r1, r3, lsl #2]
 800307e:	3b01      	subs	r3, #1
 8003080:	430a      	orrs	r2, r1
 8003082:	e799      	b.n	8002fb8 <__kernel_rem_pio2+0x278>
 8003084:	3401      	adds	r4, #1
 8003086:	e7a0      	b.n	8002fca <__kernel_rem_pio2+0x28a>
 8003088:	9b0a      	ldr	r3, [sp, #40]	; 0x28
 800308a:	f853 0026 	ldr.w	r0, [r3, r6, lsl #2]
 800308e:	f7fd f9ed 	bl	800046c <__aeabi_i2d>
 8003092:	e8e5 0102 	strd	r0, r1, [r5], #8
 8003096:	9b09      	ldr	r3, [sp, #36]	; 0x24
 8003098:	9508      	str	r5, [sp, #32]
 800309a:	461c      	mov	r4, r3
 800309c:	2700      	movs	r7, #0
 800309e:	f04f 0800 	mov.w	r8, #0
 80030a2:	f04f 0900 	mov.w	r9, #0
 80030a6:	9b04      	ldr	r3, [sp, #16]
 80030a8:	429f      	cmp	r7, r3
 80030aa:	dd03      	ble.n	80030b4 <__kernel_rem_pio2+0x374>
 80030ac:	e8eb 8902 	strd	r8, r9, [fp], #8
 80030b0:	3601      	adds	r6, #1
 80030b2:	e79d      	b.n	8002ff0 <__kernel_rem_pio2+0x2b0>
 80030b4:	9908      	ldr	r1, [sp, #32]
 80030b6:	e971 2302 	ldrd	r2, r3, [r1, #-8]!
 80030ba:	9108      	str	r1, [sp, #32]
 80030bc:	e8f4 0102 	ldrd	r0, r1, [r4], #8
 80030c0:	f7fd fa3a 	bl	8000538 <__aeabi_dmul>
 80030c4:	4602      	mov	r2, r0
 80030c6:	460b      	mov	r3, r1
 80030c8:	4640      	mov	r0, r8
 80030ca:	4649      	mov	r1, r9
 80030cc:	f7fd f882 	bl	80001d4 <__adddf3>
 80030d0:	3701      	adds	r7, #1
 80030d2:	4680      	mov	r8, r0
 80030d4:	4689      	mov	r9, r1
 80030d6:	e7e6      	b.n	80030a6 <__kernel_rem_pio2+0x366>
 80030d8:	3c01      	subs	r4, #1
 80030da:	ab0c      	add	r3, sp, #48	; 0x30
 80030dc:	f1aa 0a18 	sub.w	sl, sl, #24
 80030e0:	f853 3024 	ldr.w	r3, [r3, r4, lsl #2]
 80030e4:	2b00      	cmp	r3, #0
 80030e6:	d0f7      	beq.n	80030d8 <__kernel_rem_pio2+0x398>
 80030e8:	4650      	mov	r0, sl
 80030ea:	ed9f 0bb5 	vldr	d0, [pc, #724]	; 80033c0 <__kernel_rem_pio2+0x680>
 80030ee:	f000 fb4b 	bl	8003788 <scalbn>
 80030f2:	00e5      	lsls	r5, r4, #3
 80030f4:	ab98      	add	r3, sp, #608	; 0x260
 80030f6:	eb03 0905 	add.w	r9, r3, r5
 80030fa:	ec57 6b10 	vmov	r6, r7, d0
 80030fe:	f1a9 0998 	sub.w	r9, r9, #152	; 0x98
 8003102:	46a0      	mov	r8, r4
 8003104:	f1b8 0f00 	cmp.w	r8, #0
 8003108:	da4d      	bge.n	80031a6 <__kernel_rem_pio2+0x466>
 800310a:	ed9f 8baf 	vldr	d8, [pc, #700]	; 80033c8 <__kernel_rem_pio2+0x688>
 800310e:	f50d 7a90 	add.w	sl, sp, #288	; 0x120
 8003112:	2300      	movs	r3, #0
 8003114:	9304      	str	r3, [sp, #16]
 8003116:	4657      	mov	r7, sl
 8003118:	9b04      	ldr	r3, [sp, #16]
 800311a:	ebb4 0903 	subs.w	r9, r4, r3
 800311e:	d476      	bmi.n	800320e <__kernel_rem_pio2+0x4ce>
 8003120:	4bab      	ldr	r3, [pc, #684]	; (80033d0 <__kernel_rem_pio2+0x690>)
 8003122:	461e      	mov	r6, r3
 8003124:	ab70      	add	r3, sp, #448	; 0x1c0
 8003126:	eb03 09c9 	add.w	r9, r3, r9, lsl #3
 800312a:	ed8d 8b06 	vstr	d8, [sp, #24]
 800312e:	f04f 0800 	mov.w	r8, #0
 8003132:	e05e      	b.n	80031f2 <__kernel_rem_pio2+0x4b2>
 8003134:	f1ca 0000 	rsb	r0, sl, #0
 8003138:	ec49 8b10 	vmov	d0, r8, r9
 800313c:	f000 fb24 	bl	8003788 <scalbn>
 8003140:	ec55 4b10 	vmov	r4, r5, d0
 8003144:	2200      	movs	r2, #0
 8003146:	4ba3      	ldr	r3, [pc, #652]	; (80033d4 <__kernel_rem_pio2+0x694>)
 8003148:	ee10 0a10 	vmov	r0, s0
 800314c:	4629      	mov	r1, r5
 800314e:	f7fd fc79 	bl	8000a44 <__aeabi_dcmpge>
 8003152:	b1f8      	cbz	r0, 8003194 <__kernel_rem_pio2+0x454>
 8003154:	2200      	movs	r2, #0
 8003156:	4ba0      	ldr	r3, [pc, #640]	; (80033d8 <__kernel_rem_pio2+0x698>)
 8003158:	4620      	mov	r0, r4
 800315a:	4629      	mov	r1, r5
 800315c:	f7fd f9ec 	bl	8000538 <__aeabi_dmul>
 8003160:	f7fd fc84 	bl	8000a6c <__aeabi_d2iz>
 8003164:	4606      	mov	r6, r0
 8003166:	f7fd f981 	bl	800046c <__aeabi_i2d>
 800316a:	2200      	movs	r2, #0
 800316c:	4b99      	ldr	r3, [pc, #612]	; (80033d4 <__kernel_rem_pio2+0x694>)
 800316e:	f7fd f9e3 	bl	8000538 <__aeabi_dmul>
 8003172:	460b      	mov	r3, r1
 8003174:	4602      	mov	r2, r0
 8003176:	4629      	mov	r1, r5
 8003178:	4620      	mov	r0, r4
 800317a:	f7fd f829 	bl	80001d0 <__aeabi_dsub>
 800317e:	f7fd fc75 	bl	8000a6c <__aeabi_d2iz>
 8003182:	1c7c      	adds	r4, r7, #1
 8003184:	ab0c      	add	r3, sp, #48	; 0x30
 8003186:	f10a 0a18 	add.w	sl, sl, #24
 800318a:	f843 0027 	str.w	r0, [r3, r7, lsl #2]
 800318e:	f843 6024 	str.w	r6, [r3, r4, lsl #2]
 8003192:	e7a9      	b.n	80030e8 <__kernel_rem_pio2+0x3a8>
 8003194:	4620      	mov	r0, r4
 8003196:	4629      	mov	r1, r5
 8003198:	f7fd fc68 	bl	8000a6c <__aeabi_d2iz>
 800319c:	ab0c      	add	r3, sp, #48	; 0x30
 800319e:	463c      	mov	r4, r7
 80031a0:	f843 0027 	str.w	r0, [r3, r7, lsl #2]
 80031a4:	e7a0      	b.n	80030e8 <__kernel_rem_pio2+0x3a8>
 80031a6:	ab0c      	add	r3, sp, #48	; 0x30
 80031a8:	f853 0028 	ldr.w	r0, [r3, r8, lsl #2]
 80031ac:	f7fd f95e 	bl	800046c <__aeabi_i2d>
 80031b0:	4632      	mov	r2, r6
 80031b2:	463b      	mov	r3, r7
 80031b4:	f7fd f9c0 	bl	8000538 <__aeabi_dmul>
 80031b8:	2200      	movs	r2, #0
 80031ba:	e969 0102 	strd	r0, r1, [r9, #-8]!
 80031be:	4b86      	ldr	r3, [pc, #536]	; (80033d8 <__kernel_rem_pio2+0x698>)
 80031c0:	4630      	mov	r0, r6
 80031c2:	4639      	mov	r1, r7
 80031c4:	f7fd f9b8 	bl	8000538 <__aeabi_dmul>
 80031c8:	f108 38ff 	add.w	r8, r8, #4294967295
 80031cc:	4606      	mov	r6, r0
 80031ce:	460f      	mov	r7, r1
 80031d0:	e798      	b.n	8003104 <__kernel_rem_pio2+0x3c4>
 80031d2:	e8f9 2302 	ldrd	r2, r3, [r9], #8
 80031d6:	e8f6 0102 	ldrd	r0, r1, [r6], #8
 80031da:	f7fd f9ad 	bl	8000538 <__aeabi_dmul>
 80031de:	4602      	mov	r2, r0
 80031e0:	460b      	mov	r3, r1
 80031e2:	e9dd 0106 	ldrd	r0, r1, [sp, #24]
 80031e6:	f7fc fff5 	bl	80001d4 <__adddf3>
 80031ea:	e9cd 0106 	strd	r0, r1, [sp, #24]
 80031ee:	f108 0801 	add.w	r8, r8, #1
 80031f2:	9b00      	ldr	r3, [sp, #0]
 80031f4:	4598      	cmp	r8, r3
 80031f6:	dc02      	bgt.n	80031fe <__kernel_rem_pio2+0x4be>
 80031f8:	9b04      	ldr	r3, [sp, #16]
 80031fa:	4598      	cmp	r8, r3
 80031fc:	dde9      	ble.n	80031d2 <__kernel_rem_pio2+0x492>
 80031fe:	9b04      	ldr	r3, [sp, #16]
 8003200:	ed9d 7b06 	vldr	d7, [sp, #24]
 8003204:	3301      	adds	r3, #1
 8003206:	ecaa 7b02 	vstmia	sl!, {d7}
 800320a:	9304      	str	r3, [sp, #16]
 800320c:	e784      	b.n	8003118 <__kernel_rem_pio2+0x3d8>
 800320e:	9ba4      	ldr	r3, [sp, #656]	; 0x290
 8003210:	2b03      	cmp	r3, #3
 8003212:	d85d      	bhi.n	80032d0 <__kernel_rem_pio2+0x590>
 8003214:	e8df f003 	tbb	[pc, r3]
 8003218:	0226264b 	.word	0x0226264b
 800321c:	ab98      	add	r3, sp, #608	; 0x260
 800321e:	441d      	add	r5, r3
 8003220:	f5a5 759c 	sub.w	r5, r5, #312	; 0x138
 8003224:	462e      	mov	r6, r5
 8003226:	46a2      	mov	sl, r4
 8003228:	f1ba 0f00 	cmp.w	sl, #0
 800322c:	dc6e      	bgt.n	800330c <__kernel_rem_pio2+0x5cc>
 800322e:	462e      	mov	r6, r5
 8003230:	46a2      	mov	sl, r4
 8003232:	f1ba 0f01 	cmp.w	sl, #1
 8003236:	f300 808a 	bgt.w	800334e <__kernel_rem_pio2+0x60e>
 800323a:	2000      	movs	r0, #0
 800323c:	2100      	movs	r1, #0
 800323e:	2c01      	cmp	r4, #1
 8003240:	f300 80a6 	bgt.w	8003390 <__kernel_rem_pio2+0x650>
 8003244:	f1bb 0f00 	cmp.w	fp, #0
 8003248:	f040 80a8 	bne.w	800339c <__kernel_rem_pio2+0x65c>
 800324c:	e9dd 2348 	ldrd	r2, r3, [sp, #288]	; 0x120
 8003250:	9c02      	ldr	r4, [sp, #8]
 8003252:	e9c4 2300 	strd	r2, r3, [r4]
 8003256:	e9dd 234a 	ldrd	r2, r3, [sp, #296]	; 0x128
 800325a:	e9c4 0104 	strd	r0, r1, [r4, #16]
 800325e:	e9c4 2302 	strd	r2, r3, [r4, #8]
 8003262:	e035      	b.n	80032d0 <__kernel_rem_pio2+0x590>
 8003264:	3508      	adds	r5, #8
 8003266:	ab48      	add	r3, sp, #288	; 0x120
 8003268:	441d      	add	r5, r3
 800326a:	4626      	mov	r6, r4
 800326c:	2000      	movs	r0, #0
 800326e:	2100      	movs	r1, #0
 8003270:	2e00      	cmp	r6, #0
 8003272:	da3c      	bge.n	80032ee <__kernel_rem_pio2+0x5ae>
 8003274:	f1bb 0f00 	cmp.w	fp, #0
 8003278:	d03f      	beq.n	80032fa <__kernel_rem_pio2+0x5ba>
 800327a:	4602      	mov	r2, r0
 800327c:	f101 4300 	add.w	r3, r1, #2147483648	; 0x80000000
 8003280:	9d02      	ldr	r5, [sp, #8]
 8003282:	e9c5 2300 	strd	r2, r3, [r5]
 8003286:	4602      	mov	r2, r0
 8003288:	460b      	mov	r3, r1
 800328a:	e9dd 0148 	ldrd	r0, r1, [sp, #288]	; 0x120
 800328e:	f7fc ff9f 	bl	80001d0 <__aeabi_dsub>
 8003292:	ae4a      	add	r6, sp, #296	; 0x128
 8003294:	2501      	movs	r5, #1
 8003296:	42ac      	cmp	r4, r5
 8003298:	da32      	bge.n	8003300 <__kernel_rem_pio2+0x5c0>
 800329a:	f1bb 0f00 	cmp.w	fp, #0
 800329e:	d002      	beq.n	80032a6 <__kernel_rem_pio2+0x566>
 80032a0:	f101 4300 	add.w	r3, r1, #2147483648	; 0x80000000
 80032a4:	4619      	mov	r1, r3
 80032a6:	9b02      	ldr	r3, [sp, #8]
 80032a8:	e9c3 0102 	strd	r0, r1, [r3, #8]
 80032ac:	e010      	b.n	80032d0 <__kernel_rem_pio2+0x590>
 80032ae:	ab98      	add	r3, sp, #608	; 0x260
 80032b0:	441d      	add	r5, r3
 80032b2:	f5a5 759c 	sub.w	r5, r5, #312	; 0x138
 80032b6:	2000      	movs	r0, #0
 80032b8:	2100      	movs	r1, #0
 80032ba:	2c00      	cmp	r4, #0
 80032bc:	da11      	bge.n	80032e2 <__kernel_rem_pio2+0x5a2>
 80032be:	f1bb 0f00 	cmp.w	fp, #0
 80032c2:	d002      	beq.n	80032ca <__kernel_rem_pio2+0x58a>
 80032c4:	f101 4300 	add.w	r3, r1, #2147483648	; 0x80000000
 80032c8:	4619      	mov	r1, r3
 80032ca:	9b02      	ldr	r3, [sp, #8]
 80032cc:	e9c3 0100 	strd	r0, r1, [r3]
 80032d0:	9b03      	ldr	r3, [sp, #12]
 80032d2:	f003 0007 	and.w	r0, r3, #7
 80032d6:	f50d 7d19 	add.w	sp, sp, #612	; 0x264
 80032da:	ecbd 8b02 	vpop	{d8}
 80032de:	e8bd 8ff0 	ldmia.w	sp!, {r4, r5, r6, r7, r8, r9, sl, fp, pc}
 80032e2:	e975 2302 	ldrd	r2, r3, [r5, #-8]!
 80032e6:	f7fc ff75 	bl	80001d4 <__adddf3>
 80032ea:	3c01      	subs	r4, #1
 80032ec:	e7e5      	b.n	80032ba <__kernel_rem_pio2+0x57a>
 80032ee:	e975 2302 	ldrd	r2, r3, [r5, #-8]!
 80032f2:	f7fc ff6f 	bl	80001d4 <__adddf3>
 80032f6:	3e01      	subs	r6, #1
 80032f8:	e7ba      	b.n	8003270 <__kernel_rem_pio2+0x530>
 80032fa:	4602      	mov	r2, r0
 80032fc:	460b      	mov	r3, r1
 80032fe:	e7bf      	b.n	8003280 <__kernel_rem_pio2+0x540>
 8003300:	e8f6 2302 	ldrd	r2, r3, [r6], #8
 8003304:	f7fc ff66 	bl	80001d4 <__adddf3>
 8003308:	3501      	adds	r5, #1
 800330a:	e7c4      	b.n	8003296 <__kernel_rem_pio2+0x556>
 800330c:	ed16 7b02 	vldr	d7, [r6, #-8]
 8003310:	e956 8904 	ldrd	r8, r9, [r6, #-16]
 8003314:	ec53 2b17 	vmov	r2, r3, d7
 8003318:	4640      	mov	r0, r8
 800331a:	4649      	mov	r1, r9
 800331c:	ed8d 7b00 	vstr	d7, [sp]
 8003320:	f7fc ff58 	bl	80001d4 <__adddf3>
 8003324:	e9cd 0104 	strd	r0, r1, [sp, #16]
 8003328:	4602      	mov	r2, r0
 800332a:	460b      	mov	r3, r1
 800332c:	4640      	mov	r0, r8
 800332e:	4649      	mov	r1, r9
 8003330:	f7fc ff4e 	bl	80001d0 <__aeabi_dsub>
 8003334:	e9dd 2300 	ldrd	r2, r3, [sp]
 8003338:	f7fc ff4c 	bl	80001d4 <__adddf3>
 800333c:	ed9d 7b04 	vldr	d7, [sp, #16]
 8003340:	e966 0102 	strd	r0, r1, [r6, #-8]!
 8003344:	f10a 3aff 	add.w	sl, sl, #4294967295
 8003348:	ed06 7b02 	vstr	d7, [r6, #-8]
 800334c:	e76c      	b.n	8003228 <__kernel_rem_pio2+0x4e8>
 800334e:	ed16 7b02 	vldr	d7, [r6, #-8]
 8003352:	e956 8904 	ldrd	r8, r9, [r6, #-16]
 8003356:	ec53 2b17 	vmov	r2, r3, d7
 800335a:	4640      	mov	r0, r8
 800335c:	4649      	mov	r1, r9
 800335e:	ed8d 7b00 	vstr	d7, [sp]
 8003362:	f7fc ff37 	bl	80001d4 <__adddf3>
 8003366:	e9cd 0104 	strd	r0, r1, [sp, #16]
 800336a:	4602      	mov	r2, r0
 800336c:	460b      	mov	r3, r1
 800336e:	4640      	mov	r0, r8
 8003370:	4649      	mov	r1, r9
 8003372:	f7fc ff2d 	bl	80001d0 <__aeabi_dsub>
 8003376:	e9dd 2300 	ldrd	r2, r3, [sp]
 800337a:	f7fc ff2b 	bl	80001d4 <__adddf3>
 800337e:	ed9d 7b04 	vldr	d7, [sp, #16]
 8003382:	e966 0102 	strd	r0, r1, [r6, #-8]!
 8003386:	f10a 3aff 	add.w	sl, sl, #4294967295
 800338a:	ed06 7b02 	vstr	d7, [r6, #-8]
 800338e:	e750      	b.n	8003232 <__kernel_rem_pio2+0x4f2>
 8003390:	e975 2302 	ldrd	r2, r3, [r5, #-8]!
 8003394:	f7fc ff1e 	bl	80001d4 <__adddf3>
 8003398:	3c01      	subs	r4, #1
 800339a:	e750      	b.n	800323e <__kernel_rem_pio2+0x4fe>
 800339c:	9a02      	ldr	r2, [sp, #8]
 800339e:	683b      	ldr	r3, [r7, #0]
 80033a0:	6013      	str	r3, [r2, #0]
 80033a2:	687b      	ldr	r3, [r7, #4]
 80033a4:	6110      	str	r0, [r2, #16]
 80033a6:	f103 4300 	add.w	r3, r3, #2147483648	; 0x80000000
 80033aa:	6053      	str	r3, [r2, #4]
 80033ac:	68bb      	ldr	r3, [r7, #8]
 80033ae:	6093      	str	r3, [r2, #8]
 80033b0:	68fb      	ldr	r3, [r7, #12]
 80033b2:	f103 4300 	add.w	r3, r3, #2147483648	; 0x80000000
 80033b6:	60d3      	str	r3, [r2, #12]
 80033b8:	f101 4300 	add.w	r3, r1, #2147483648	; 0x80000000
 80033bc:	6153      	str	r3, [r2, #20]
 80033be:	e787      	b.n	80032d0 <__kernel_rem_pio2+0x590>
 80033c0:	00000000 	.word	0x00000000
 80033c4:	3ff00000 	.word	0x3ff00000
	...
 80033d0:	08008bb8 	.word	0x08008bb8
 80033d4:	41700000 	.word	0x41700000
 80033d8:	3e700000 	.word	0x3e700000
 80033dc:	00000000 	.word	0x00000000

080033e0 <__kernel_sin>:
 80033e0:	e92d 4ff0 	stmdb	sp!, {r4, r5, r6, r7, r8, r9, sl, fp, lr}
 80033e4:	ec55 4b10 	vmov	r4, r5, d0
 80033e8:	b085      	sub	sp, #20
 80033ea:	f025 4300 	bic.w	r3, r5, #2147483648	; 0x80000000
 80033ee:	f1b3 5f79 	cmp.w	r3, #1044381696	; 0x3e400000
 80033f2:	ed8d 1b00 	vstr	d1, [sp]
 80033f6:	9002      	str	r0, [sp, #8]
 80033f8:	da06      	bge.n	8003408 <__kernel_sin+0x28>
 80033fa:	ee10 0a10 	vmov	r0, s0
 80033fe:	4629      	mov	r1, r5
 8003400:	f7fd fb34 	bl	8000a6c <__aeabi_d2iz>
 8003404:	2800      	cmp	r0, #0
 8003406:	d051      	beq.n	80034ac <__kernel_sin+0xcc>
 8003408:	4622      	mov	r2, r4
 800340a:	462b      	mov	r3, r5
 800340c:	4620      	mov	r0, r4
 800340e:	4629      	mov	r1, r5
 8003410:	f7fd f892 	bl	8000538 <__aeabi_dmul>
 8003414:	4682      	mov	sl, r0
 8003416:	468b      	mov	fp, r1
 8003418:	4602      	mov	r2, r0
 800341a:	460b      	mov	r3, r1
 800341c:	4620      	mov	r0, r4
 800341e:	4629      	mov	r1, r5
 8003420:	f7fd f88a 	bl	8000538 <__aeabi_dmul>
 8003424:	a341      	add	r3, pc, #260	; (adr r3, 800352c <__kernel_sin+0x14c>)
 8003426:	e9d3 2300 	ldrd	r2, r3, [r3]
 800342a:	4680      	mov	r8, r0
 800342c:	4689      	mov	r9, r1
 800342e:	4650      	mov	r0, sl
 8003430:	4659      	mov	r1, fp
 8003432:	f7fd f881 	bl	8000538 <__aeabi_dmul>
 8003436:	a33f      	add	r3, pc, #252	; (adr r3, 8003534 <__kernel_sin+0x154>)
 8003438:	e9d3 2300 	ldrd	r2, r3, [r3]
 800343c:	f7fc fec8 	bl	80001d0 <__aeabi_dsub>
 8003440:	4652      	mov	r2, sl
 8003442:	465b      	mov	r3, fp
 8003444:	f7fd f878 	bl	8000538 <__aeabi_dmul>
 8003448:	a33c      	add	r3, pc, #240	; (adr r3, 800353c <__kernel_sin+0x15c>)
 800344a:	e9d3 2300 	ldrd	r2, r3, [r3]
 800344e:	f7fc fec1 	bl	80001d4 <__adddf3>
 8003452:	4652      	mov	r2, sl
 8003454:	465b      	mov	r3, fp
 8003456:	f7fd f86f 	bl	8000538 <__aeabi_dmul>
 800345a:	a33a      	add	r3, pc, #232	; (adr r3, 8003544 <__kernel_sin+0x164>)
 800345c:	e9d3 2300 	ldrd	r2, r3, [r3]
 8003460:	f7fc feb6 	bl	80001d0 <__aeabi_dsub>
 8003464:	4652      	mov	r2, sl
 8003466:	465b      	mov	r3, fp
 8003468:	f7fd f866 	bl	8000538 <__aeabi_dmul>
 800346c:	a337      	add	r3, pc, #220	; (adr r3, 800354c <__kernel_sin+0x16c>)
 800346e:	e9d3 2300 	ldrd	r2, r3, [r3]
 8003472:	f7fc feaf 	bl	80001d4 <__adddf3>
 8003476:	9b02      	ldr	r3, [sp, #8]
 8003478:	4606      	mov	r6, r0
 800347a:	460f      	mov	r7, r1
 800347c:	b9db      	cbnz	r3, 80034b6 <__kernel_sin+0xd6>
 800347e:	4602      	mov	r2, r0
 8003480:	460b      	mov	r3, r1
 8003482:	4650      	mov	r0, sl
 8003484:	4659      	mov	r1, fp
 8003486:	f7fd f857 	bl	8000538 <__aeabi_dmul>
 800348a:	a325      	add	r3, pc, #148	; (adr r3, 8003520 <__kernel_sin+0x140>)
 800348c:	e9d3 2300 	ldrd	r2, r3, [r3]
 8003490:	f7fc fe9e 	bl	80001d0 <__aeabi_dsub>
 8003494:	4642      	mov	r2, r8
 8003496:	464b      	mov	r3, r9
 8003498:	f7fd f84e 	bl	8000538 <__aeabi_dmul>
 800349c:	4602      	mov	r2, r0
 800349e:	460b      	mov	r3, r1
 80034a0:	4620      	mov	r0, r4
 80034a2:	4629      	mov	r1, r5
 80034a4:	f7fc fe96 	bl	80001d4 <__adddf3>
 80034a8:	4604      	mov	r4, r0
 80034aa:	460d      	mov	r5, r1
 80034ac:	ec45 4b10 	vmov	d0, r4, r5
 80034b0:	b005      	add	sp, #20
 80034b2:	e8bd 8ff0 	ldmia.w	sp!, {r4, r5, r6, r7, r8, r9, sl, fp, pc}
 80034b6:	2200      	movs	r2, #0
 80034b8:	4b1b      	ldr	r3, [pc, #108]	; (8003528 <__kernel_sin+0x148>)
 80034ba:	e9dd 0100 	ldrd	r0, r1, [sp]
 80034be:	f7fd f83b 	bl	8000538 <__aeabi_dmul>
 80034c2:	4632      	mov	r2, r6
 80034c4:	e9cd 0102 	strd	r0, r1, [sp, #8]
 80034c8:	463b      	mov	r3, r7
 80034ca:	4640      	mov	r0, r8
 80034cc:	4649      	mov	r1, r9
 80034ce:	f7fd f833 	bl	8000538 <__aeabi_dmul>
 80034d2:	4602      	mov	r2, r0
 80034d4:	460b      	mov	r3, r1
 80034d6:	e9dd 0102 	ldrd	r0, r1, [sp, #8]
 80034da:	f7fc fe79 	bl	80001d0 <__aeabi_dsub>
 80034de:	4652      	mov	r2, sl
 80034e0:	465b      	mov	r3, fp
 80034e2:	f7fd f829 	bl	8000538 <__aeabi_dmul>
 80034e6:	e9dd 2300 	ldrd	r2, r3, [sp]
 80034ea:	f7fc fe71 	bl	80001d0 <__aeabi_dsub>
 80034ee:	a30c      	add	r3, pc, #48	; (adr r3, 8003520 <__kernel_sin+0x140>)
 80034f0:	e9d3 2300 	ldrd	r2, r3, [r3]
 80034f4:	4606      	mov	r6, r0
 80034f6:	460f      	mov	r7, r1
 80034f8:	4640      	mov	r0, r8
 80034fa:	4649      	mov	r1, r9
 80034fc:	f7fd f81c 	bl	8000538 <__aeabi_dmul>
 8003500:	4602      	mov	r2, r0
 8003502:	460b      	mov	r3, r1
 8003504:	4630      	mov	r0, r6
 8003506:	4639      	mov	r1, r7
 8003508:	f7fc fe64 	bl	80001d4 <__adddf3>
 800350c:	4602      	mov	r2, r0
 800350e:	460b      	mov	r3, r1
 8003510:	4620      	mov	r0, r4
 8003512:	4629      	mov	r1, r5
 8003514:	f7fc fe5c 	bl	80001d0 <__aeabi_dsub>
 8003518:	e7c6      	b.n	80034a8 <__kernel_sin+0xc8>
 800351a:	bf00      	nop
 800351c:	f3af 8000 	nop.w
 8003520:	55555549 	.word	0x55555549
 8003524:	3fc55555 	.word	0x3fc55555
 8003528:	3fe00000 	.word	0x3fe00000
 800352c:	5acfd57c 	.word	0x5acfd57c
 8003530:	3de5d93a 	.word	0x3de5d93a
 8003534:	8a2b9ceb 	.word	0x8a2b9ceb
 8003538:	3e5ae5e6 	.word	0x3e5ae5e6
 800353c:	57b1fe7d 	.word	0x57b1fe7d
 8003540:	3ec71de3 	.word	0x3ec71de3
 8003544:	19c161d5 	.word	0x19c161d5
 8003548:	3f2a01a0 	.word	0x3f2a01a0
 800354c:	1110f8a6 	.word	0x1110f8a6
 8003550:	3f811111 	.word	0x3f811111

08003554 <fabs>:
 8003554:	ec53 2b10 	vmov	r2, r3, d0
 8003558:	f023 4300 	bic.w	r3, r3, #2147483648	; 0x80000000
 800355c:	ec43 2b10 	vmov	d0, r2, r3
 8003560:	4770      	bx	lr
 8003562:	0000      	movs	r0, r0
 8003564:	0000      	movs	r0, r0
	...

08003568 <floor>:
 8003568:	ec51 0b10 	vmov	r0, r1, d0
 800356c:	e92d 41f0 	stmdb	sp!, {r4, r5, r6, r7, r8, lr}
 8003570:	f3c1 570a 	ubfx	r7, r1, #20, #11
 8003574:	f2a7 36ff 	subw	r6, r7, #1023	; 0x3ff
 8003578:	2e13      	cmp	r6, #19
 800357a:	ee10 8a10 	vmov	r8, s0
 800357e:	460c      	mov	r4, r1
 8003580:	ee10 5a10 	vmov	r5, s0
 8003584:	dc35      	bgt.n	80035f2 <floor+0x8a>
 8003586:	2e00      	cmp	r6, #0
 8003588:	da17      	bge.n	80035ba <floor+0x52>
 800358a:	a335      	add	r3, pc, #212	; (adr r3, 8003660 <floor+0xf8>)
 800358c:	e9d3 2300 	ldrd	r2, r3, [r3]
 8003590:	f7fc fe20 	bl	80001d4 <__adddf3>
 8003594:	2200      	movs	r2, #0
 8003596:	2300      	movs	r3, #0
 8003598:	f7fd fa5e 	bl	8000a58 <__aeabi_dcmpgt>
 800359c:	b150      	cbz	r0, 80035b4 <floor+0x4c>
 800359e:	2c00      	cmp	r4, #0
 80035a0:	da5a      	bge.n	8003658 <floor+0xf0>
 80035a2:	f024 4300 	bic.w	r3, r4, #2147483648	; 0x80000000
 80035a6:	ea53 0308 	orrs.w	r3, r3, r8
 80035aa:	4b2f      	ldr	r3, [pc, #188]	; (8003668 <floor+0x100>)
 80035ac:	f04f 0500 	mov.w	r5, #0
 80035b0:	bf18      	it	ne
 80035b2:	461c      	movne	r4, r3
 80035b4:	4621      	mov	r1, r4
 80035b6:	4628      	mov	r0, r5
 80035b8:	e025      	b.n	8003606 <floor+0x9e>
 80035ba:	4f2c      	ldr	r7, [pc, #176]	; (800366c <floor+0x104>)
 80035bc:	4137      	asrs	r7, r6
 80035be:	ea01 0307 	and.w	r3, r1, r7
 80035c2:	4303      	orrs	r3, r0
 80035c4:	d01f      	beq.n	8003606 <floor+0x9e>
 80035c6:	a326      	add	r3, pc, #152	; (adr r3, 8003660 <floor+0xf8>)
 80035c8:	e9d3 2300 	ldrd	r2, r3, [r3]
 80035cc:	f7fc fe02 	bl	80001d4 <__adddf3>
 80035d0:	2200      	movs	r2, #0
 80035d2:	2300      	movs	r3, #0
 80035d4:	f7fd fa40 	bl	8000a58 <__aeabi_dcmpgt>
 80035d8:	2800      	cmp	r0, #0
 80035da:	d0eb      	beq.n	80035b4 <floor+0x4c>
 80035dc:	2c00      	cmp	r4, #0
 80035de:	bfbe      	ittt	lt
 80035e0:	f44f 1380 	movlt.w	r3, #1048576	; 0x100000
 80035e4:	fa43 f606 	asrlt.w	r6, r3, r6
 80035e8:	19a4      	addlt	r4, r4, r6
 80035ea:	ea24 0407 	bic.w	r4, r4, r7
 80035ee:	2500      	movs	r5, #0
 80035f0:	e7e0      	b.n	80035b4 <floor+0x4c>
 80035f2:	2e33      	cmp	r6, #51	; 0x33
 80035f4:	dd0b      	ble.n	800360e <floor+0xa6>
 80035f6:	f5b6 6f80 	cmp.w	r6, #1024	; 0x400
 80035fa:	d104      	bne.n	8003606 <floor+0x9e>
 80035fc:	ee10 2a10 	vmov	r2, s0
 8003600:	460b      	mov	r3, r1
 8003602:	f7fc fde7 	bl	80001d4 <__adddf3>
 8003606:	ec41 0b10 	vmov	d0, r0, r1
 800360a:	e8bd 81f0 	ldmia.w	sp!, {r4, r5, r6, r7, r8, pc}
 800360e:	f2a7 4713 	subw	r7, r7, #1043	; 0x413
 8003612:	f04f 33ff 	mov.w	r3, #4294967295
 8003616:	fa23 f707 	lsr.w	r7, r3, r7
 800361a:	4238      	tst	r0, r7
 800361c:	d0f3      	beq.n	8003606 <floor+0x9e>
 800361e:	a310      	add	r3, pc, #64	; (adr r3, 8003660 <floor+0xf8>)
 8003620:	e9d3 2300 	ldrd	r2, r3, [r3]
 8003624:	f7fc fdd6 	bl	80001d4 <__adddf3>
 8003628:	2200      	movs	r2, #0
 800362a:	2300      	movs	r3, #0
 800362c:	f7fd fa14 	bl	8000a58 <__aeabi_dcmpgt>
 8003630:	2800      	cmp	r0, #0
 8003632:	d0bf      	beq.n	80035b4 <floor+0x4c>
 8003634:	2c00      	cmp	r4, #0
 8003636:	da02      	bge.n	800363e <floor+0xd6>
 8003638:	2e14      	cmp	r6, #20
 800363a:	d103      	bne.n	8003644 <floor+0xdc>
 800363c:	3401      	adds	r4, #1
 800363e:	ea25 0507 	bic.w	r5, r5, r7
 8003642:	e7b7      	b.n	80035b4 <floor+0x4c>
 8003644:	2301      	movs	r3, #1
 8003646:	f1c6 0634 	rsb	r6, r6, #52	; 0x34
 800364a:	fa03 f606 	lsl.w	r6, r3, r6
 800364e:	4435      	add	r5, r6
 8003650:	45a8      	cmp	r8, r5
 8003652:	bf88      	it	hi
 8003654:	18e4      	addhi	r4, r4, r3
 8003656:	e7f2      	b.n	800363e <floor+0xd6>
 8003658:	2500      	movs	r5, #0
 800365a:	462c      	mov	r4, r5
 800365c:	e7aa      	b.n	80035b4 <floor+0x4c>
 800365e:	bf00      	nop
 8003660:	8800759c 	.word	0x8800759c
 8003664:	7e37e43c 	.word	0x7e37e43c
 8003668:	bff00000 	.word	0xbff00000
 800366c:	000fffff 	.word	0x000fffff

08003670 <matherr>:
 8003670:	2000      	movs	r0, #0
 8003672:	4770      	bx	lr

08003674 <rint>:
 8003674:	b5f7      	push	{r0, r1, r2, r4, r5, r6, r7, lr}
 8003676:	ec51 0b10 	vmov	r0, r1, d0
 800367a:	f3c1 540a 	ubfx	r4, r1, #20, #11
 800367e:	f2a4 36ff 	subw	r6, r4, #1023	; 0x3ff
 8003682:	2e13      	cmp	r6, #19
 8003684:	ee10 7a10 	vmov	r7, s0
 8003688:	460b      	mov	r3, r1
 800368a:	4602      	mov	r2, r0
 800368c:	ea4f 75d1 	mov.w	r5, r1, lsr #31
 8003690:	dc58      	bgt.n	8003744 <rint+0xd0>
 8003692:	2e00      	cmp	r6, #0
 8003694:	da2b      	bge.n	80036ee <rint+0x7a>
 8003696:	f021 4200 	bic.w	r2, r1, #2147483648	; 0x80000000
 800369a:	4302      	orrs	r2, r0
 800369c:	d023      	beq.n	80036e6 <rint+0x72>
 800369e:	f3c1 0213 	ubfx	r2, r1, #0, #20
 80036a2:	4302      	orrs	r2, r0
 80036a4:	4251      	negs	r1, r2
 80036a6:	4311      	orrs	r1, r2
 80036a8:	0b09      	lsrs	r1, r1, #12
 80036aa:	0c5b      	lsrs	r3, r3, #17
 80036ac:	f401 2100 	and.w	r1, r1, #524288	; 0x80000
 80036b0:	045b      	lsls	r3, r3, #17
 80036b2:	ea41 0703 	orr.w	r7, r1, r3
 80036b6:	4b31      	ldr	r3, [pc, #196]	; (800377c <rint+0x108>)
 80036b8:	eb03 03c5 	add.w	r3, r3, r5, lsl #3
 80036bc:	4639      	mov	r1, r7
 80036be:	e9d3 6700 	ldrd	r6, r7, [r3]
 80036c2:	ee10 0a10 	vmov	r0, s0
 80036c6:	4632      	mov	r2, r6
 80036c8:	463b      	mov	r3, r7
 80036ca:	f7fc fd83 	bl	80001d4 <__adddf3>
 80036ce:	e9cd 0100 	strd	r0, r1, [sp]
 80036d2:	463b      	mov	r3, r7
 80036d4:	4632      	mov	r2, r6
 80036d6:	e9dd 0100 	ldrd	r0, r1, [sp]
 80036da:	f7fc fd79 	bl	80001d0 <__aeabi_dsub>
 80036de:	f021 4300 	bic.w	r3, r1, #2147483648	; 0x80000000
 80036e2:	ea43 71c5 	orr.w	r1, r3, r5, lsl #31
 80036e6:	ec41 0b10 	vmov	d0, r0, r1
 80036ea:	b003      	add	sp, #12
 80036ec:	bdf0      	pop	{r4, r5, r6, r7, pc}
 80036ee:	4c24      	ldr	r4, [pc, #144]	; (8003780 <rint+0x10c>)
 80036f0:	4134      	asrs	r4, r6
 80036f2:	ea01 0704 	and.w	r7, r1, r4
 80036f6:	4307      	orrs	r7, r0
 80036f8:	d0f5      	beq.n	80036e6 <rint+0x72>
 80036fa:	0861      	lsrs	r1, r4, #1
 80036fc:	ea03 0001 	and.w	r0, r3, r1
 8003700:	4302      	orrs	r2, r0
 8003702:	d00b      	beq.n	800371c <rint+0xa8>
 8003704:	ea23 0101 	bic.w	r1, r3, r1
 8003708:	f44f 2380 	mov.w	r3, #262144	; 0x40000
 800370c:	2e13      	cmp	r6, #19
 800370e:	fa43 f306 	asr.w	r3, r3, r6
 8003712:	bf0c      	ite	eq
 8003714:	f04f 4200 	moveq.w	r2, #2147483648	; 0x80000000
 8003718:	2200      	movne	r2, #0
 800371a:	430b      	orrs	r3, r1
 800371c:	4619      	mov	r1, r3
 800371e:	4b17      	ldr	r3, [pc, #92]	; (800377c <rint+0x108>)
 8003720:	eb03 05c5 	add.w	r5, r3, r5, lsl #3
 8003724:	e9d5 4500 	ldrd	r4, r5, [r5]
 8003728:	4610      	mov	r0, r2
 800372a:	462b      	mov	r3, r5
 800372c:	4622      	mov	r2, r4
 800372e:	f7fc fd51 	bl	80001d4 <__adddf3>
 8003732:	e9cd 0100 	strd	r0, r1, [sp]
 8003736:	4622      	mov	r2, r4
 8003738:	462b      	mov	r3, r5
 800373a:	e9dd 0100 	ldrd	r0, r1, [sp]
 800373e:	f7fc fd47 	bl	80001d0 <__aeabi_dsub>
 8003742:	e7d0      	b.n	80036e6 <rint+0x72>
 8003744:	2e33      	cmp	r6, #51	; 0x33
 8003746:	dd08      	ble.n	800375a <rint+0xe6>
 8003748:	f5b6 6f80 	cmp.w	r6, #1024	; 0x400
 800374c:	d1cb      	bne.n	80036e6 <rint+0x72>
 800374e:	ee10 2a10 	vmov	r2, s0
 8003752:	460b      	mov	r3, r1
 8003754:	f7fc fd3e 	bl	80001d4 <__adddf3>
 8003758:	e7c5      	b.n	80036e6 <rint+0x72>
 800375a:	f2a4 4613 	subw	r6, r4, #1043	; 0x413
 800375e:	f04f 34ff 	mov.w	r4, #4294967295
 8003762:	40f4      	lsrs	r4, r6
 8003764:	4220      	tst	r0, r4
 8003766:	d0be      	beq.n	80036e6 <rint+0x72>
 8003768:	0861      	lsrs	r1, r4, #1
 800376a:	420f      	tst	r7, r1
 800376c:	bf1f      	itttt	ne
 800376e:	f04f 4280 	movne.w	r2, #1073741824	; 0x40000000
 8003772:	ea27 0101 	bicne.w	r1, r7, r1
 8003776:	4132      	asrne	r2, r6
 8003778:	430a      	orrne	r2, r1
 800377a:	e7cf      	b.n	800371c <rint+0xa8>
 800377c:	08008c08 	.word	0x08008c08
 8003780:	000fffff 	.word	0x000fffff
 8003784:	00000000 	.word	0x00000000

08003788 <scalbn>:
 8003788:	b570      	push	{r4, r5, r6, lr}
 800378a:	ec55 4b10 	vmov	r4, r5, d0
 800378e:	f3c5 520a 	ubfx	r2, r5, #20, #11
 8003792:	4606      	mov	r6, r0
 8003794:	462b      	mov	r3, r5
 8003796:	b9b2      	cbnz	r2, 80037c6 <scalbn+0x3e>
 8003798:	f025 4300 	bic.w	r3, r5, #2147483648	; 0x80000000
 800379c:	4323      	orrs	r3, r4
 800379e:	d03c      	beq.n	800381a <scalbn+0x92>
 80037a0:	2200      	movs	r2, #0
 80037a2:	4b33      	ldr	r3, [pc, #204]	; (8003870 <scalbn+0xe8>)
 80037a4:	4629      	mov	r1, r5
 80037a6:	ee10 0a10 	vmov	r0, s0
 80037aa:	f7fc fec5 	bl	8000538 <__aeabi_dmul>
 80037ae:	4a31      	ldr	r2, [pc, #196]	; (8003874 <scalbn+0xec>)
 80037b0:	4296      	cmp	r6, r2
 80037b2:	4604      	mov	r4, r0
 80037b4:	460d      	mov	r5, r1
 80037b6:	460b      	mov	r3, r1
 80037b8:	da13      	bge.n	80037e2 <scalbn+0x5a>
 80037ba:	a329      	add	r3, pc, #164	; (adr r3, 8003860 <scalbn+0xd8>)
 80037bc:	e9d3 2300 	ldrd	r2, r3, [r3]
 80037c0:	f7fc feba 	bl	8000538 <__aeabi_dmul>
 80037c4:	e00a      	b.n	80037dc <scalbn+0x54>
 80037c6:	f240 71ff 	movw	r1, #2047	; 0x7ff
 80037ca:	428a      	cmp	r2, r1
 80037cc:	d10c      	bne.n	80037e8 <scalbn+0x60>
 80037ce:	ee10 2a10 	vmov	r2, s0
 80037d2:	462b      	mov	r3, r5
 80037d4:	4620      	mov	r0, r4
 80037d6:	4629      	mov	r1, r5
 80037d8:	f7fc fcfc 	bl	80001d4 <__adddf3>
 80037dc:	4604      	mov	r4, r0
 80037de:	460d      	mov	r5, r1
 80037e0:	e01b      	b.n	800381a <scalbn+0x92>
 80037e2:	f3c1 520a 	ubfx	r2, r1, #20, #11
 80037e6:	3a36      	subs	r2, #54	; 0x36
 80037e8:	4432      	add	r2, r6
 80037ea:	f240 71fe 	movw	r1, #2046	; 0x7fe
 80037ee:	428a      	cmp	r2, r1
 80037f0:	dd0b      	ble.n	800380a <scalbn+0x82>
 80037f2:	ec45 4b11 	vmov	d1, r4, r5
 80037f6:	ed9f 0b1c 	vldr	d0, [pc, #112]	; 8003868 <scalbn+0xe0>
 80037fa:	f000 f8b7 	bl	800396c <copysign>
 80037fe:	a31a      	add	r3, pc, #104	; (adr r3, 8003868 <scalbn+0xe0>)
 8003800:	e9d3 2300 	ldrd	r2, r3, [r3]
 8003804:	ec51 0b10 	vmov	r0, r1, d0
 8003808:	e7da      	b.n	80037c0 <scalbn+0x38>
 800380a:	2a00      	cmp	r2, #0
 800380c:	dd08      	ble.n	8003820 <scalbn+0x98>
 800380e:	f023 43ff 	bic.w	r3, r3, #2139095040	; 0x7f800000
 8003812:	f423 03e0 	bic.w	r3, r3, #7340032	; 0x700000
 8003816:	ea43 5502 	orr.w	r5, r3, r2, lsl #20
 800381a:	ec45 4b10 	vmov	d0, r4, r5
 800381e:	bd70      	pop	{r4, r5, r6, pc}
 8003820:	f112 0f35 	cmn.w	r2, #53	; 0x35
 8003824:	da0d      	bge.n	8003842 <scalbn+0xba>
 8003826:	f24c 3350 	movw	r3, #50000	; 0xc350
 800382a:	429e      	cmp	r6, r3
 800382c:	ec45 4b11 	vmov	d1, r4, r5
 8003830:	dce1      	bgt.n	80037f6 <scalbn+0x6e>
 8003832:	ed9f 0b0b 	vldr	d0, [pc, #44]	; 8003860 <scalbn+0xd8>
 8003836:	f000 f899 	bl	800396c <copysign>
 800383a:	a309      	add	r3, pc, #36	; (adr r3, 8003860 <scalbn+0xd8>)
 800383c:	e9d3 2300 	ldrd	r2, r3, [r3]
 8003840:	e7e0      	b.n	8003804 <scalbn+0x7c>
 8003842:	f023 43ff 	bic.w	r3, r3, #2139095040	; 0x7f800000
 8003846:	3236      	adds	r2, #54	; 0x36
 8003848:	f423 03e0 	bic.w	r3, r3, #7340032	; 0x700000
 800384c:	ea43 5502 	orr.w	r5, r3, r2, lsl #20
 8003850:	4620      	mov	r0, r4
 8003852:	4629      	mov	r1, r5
 8003854:	2200      	movs	r2, #0
 8003856:	4b08      	ldr	r3, [pc, #32]	; (8003878 <scalbn+0xf0>)
 8003858:	e7b2      	b.n	80037c0 <scalbn+0x38>
 800385a:	bf00      	nop
 800385c:	f3af 8000 	nop.w
 8003860:	c2f8f359 	.word	0xc2f8f359
 8003864:	01a56e1f 	.word	0x01a56e1f
 8003868:	8800759c 	.word	0x8800759c
 800386c:	7e37e43c 	.word	0x7e37e43c
 8003870:	43500000 	.word	0x43500000
 8003874:	ffff3cb0 	.word	0xffff3cb0
 8003878:	3c900000 	.word	0x3c900000

0800387c <fabsf>:
 800387c:	ee10 3a10 	vmov	r3, s0
 8003880:	f023 4300 	bic.w	r3, r3, #2147483648	; 0x80000000
 8003884:	ee00 3a10 	vmov	s0, r3
 8003888:	4770      	bx	lr

0800388a <finitef>:
 800388a:	ee10 3a10 	vmov	r3, s0
 800388e:	f023 4000 	bic.w	r0, r3, #2147483648	; 0x80000000
 8003892:	f1b0 4fff 	cmp.w	r0, #2139095040	; 0x7f800000
 8003896:	bfac      	ite	ge
 8003898:	2000      	movge	r0, #0
 800389a:	2001      	movlt	r0, #1
 800389c:	4770      	bx	lr
	...

080038a0 <nanf>:
 80038a0:	ed9f 0a01 	vldr	s0, [pc, #4]	; 80038a8 <nanf+0x8>
 80038a4:	4770      	bx	lr
 80038a6:	bf00      	nop
 80038a8:	7fc00000 	.word	0x7fc00000

080038ac <scalbnf>:
 80038ac:	b508      	push	{r3, lr}
 80038ae:	ee10 2a10 	vmov	r2, s0
 80038b2:	f032 4300 	bics.w	r3, r2, #2147483648	; 0x80000000
 80038b6:	ed2d 8b02 	vpush	{d8}
 80038ba:	eef0 0a40 	vmov.f32	s1, s0
 80038be:	d004      	beq.n	80038ca <scalbnf+0x1e>
 80038c0:	f1b3 4fff 	cmp.w	r3, #2139095040	; 0x7f800000
 80038c4:	d306      	bcc.n	80038d4 <scalbnf+0x28>
 80038c6:	ee70 0a00 	vadd.f32	s1, s0, s0
 80038ca:	ecbd 8b02 	vpop	{d8}
 80038ce:	eeb0 0a60 	vmov.f32	s0, s1
 80038d2:	bd08      	pop	{r3, pc}
 80038d4:	f5b3 0f00 	cmp.w	r3, #8388608	; 0x800000
 80038d8:	d21c      	bcs.n	8003914 <scalbnf+0x68>
 80038da:	4b1f      	ldr	r3, [pc, #124]	; (8003958 <scalbnf+0xac>)
 80038dc:	eddf 7a1f 	vldr	s15, [pc, #124]	; 800395c <scalbnf+0xb0>
 80038e0:	4298      	cmp	r0, r3
 80038e2:	ee60 0a27 	vmul.f32	s1, s0, s15
 80038e6:	db10      	blt.n	800390a <scalbnf+0x5e>
 80038e8:	ee10 2a90 	vmov	r2, s1
 80038ec:	f3c2 53c7 	ubfx	r3, r2, #23, #8
 80038f0:	3b19      	subs	r3, #25
 80038f2:	4403      	add	r3, r0
 80038f4:	2bfe      	cmp	r3, #254	; 0xfe
 80038f6:	dd0f      	ble.n	8003918 <scalbnf+0x6c>
 80038f8:	ed9f 8a19 	vldr	s16, [pc, #100]	; 8003960 <scalbnf+0xb4>
 80038fc:	eeb0 0a48 	vmov.f32	s0, s16
 8003900:	f000 f841 	bl	8003986 <copysignf>
 8003904:	ee60 0a08 	vmul.f32	s1, s0, s16
 8003908:	e7df      	b.n	80038ca <scalbnf+0x1e>
 800390a:	eddf 7a16 	vldr	s15, [pc, #88]	; 8003964 <scalbnf+0xb8>
 800390e:	ee60 0aa7 	vmul.f32	s1, s1, s15
 8003912:	e7da      	b.n	80038ca <scalbnf+0x1e>
 8003914:	0ddb      	lsrs	r3, r3, #23
 8003916:	e7ec      	b.n	80038f2 <scalbnf+0x46>
 8003918:	2b00      	cmp	r3, #0
 800391a:	dd06      	ble.n	800392a <scalbnf+0x7e>
 800391c:	f022 42ff 	bic.w	r2, r2, #2139095040	; 0x7f800000
 8003920:	ea42 53c3 	orr.w	r3, r2, r3, lsl #23
 8003924:	ee00 3a90 	vmov	s1, r3
 8003928:	e7cf      	b.n	80038ca <scalbnf+0x1e>
 800392a:	f113 0f16 	cmn.w	r3, #22
 800392e:	da06      	bge.n	800393e <scalbnf+0x92>
 8003930:	f24c 3350 	movw	r3, #50000	; 0xc350
 8003934:	4298      	cmp	r0, r3
 8003936:	dcdf      	bgt.n	80038f8 <scalbnf+0x4c>
 8003938:	ed9f 8a0a 	vldr	s16, [pc, #40]	; 8003964 <scalbnf+0xb8>
 800393c:	e7de      	b.n	80038fc <scalbnf+0x50>
 800393e:	3319      	adds	r3, #25
 8003940:	f022 42ff 	bic.w	r2, r2, #2139095040	; 0x7f800000
 8003944:	ea42 53c3 	orr.w	r3, r2, r3, lsl #23
 8003948:	eddf 7a07 	vldr	s15, [pc, #28]	; 8003968 <scalbnf+0xbc>
 800394c:	ee07 3a10 	vmov	s14, r3
 8003950:	ee67 0a27 	vmul.f32	s1, s14, s15
 8003954:	e7b9      	b.n	80038ca <scalbnf+0x1e>
 8003956:	bf00      	nop
 8003958:	ffff3cb0 	.word	0xffff3cb0
 800395c:	4c000000 	.word	0x4c000000
 8003960:	7149f2ca 	.word	0x7149f2ca
 8003964:	0da24260 	.word	0x0da24260
 8003968:	33000000 	.word	0x33000000

0800396c <copysign>:
 800396c:	ec53 2b10 	vmov	r2, r3, d0
 8003970:	ee11 0a90 	vmov	r0, s3
 8003974:	f023 4100 	bic.w	r1, r3, #2147483648	; 0x80000000
 8003978:	f000 4000 	and.w	r0, r0, #2147483648	; 0x80000000
 800397c:	ea41 0300 	orr.w	r3, r1, r0
 8003980:	ec43 2b10 	vmov	d0, r2, r3
 8003984:	4770      	bx	lr

08003986 <copysignf>:
 8003986:	ee10 3a10 	vmov	r3, s0
 800398a:	ee10 2a90 	vmov	r2, s1
 800398e:	f023 4300 	bic.w	r3, r3, #2147483648	; 0x80000000
 8003992:	f002 4200 	and.w	r2, r2, #2147483648	; 0x80000000
 8003996:	4313      	orrs	r3, r2
 8003998:	ee00 3a10 	vmov	s0, r3
 800399c:	4770      	bx	lr
	...

080039a0 <__errno>:
 80039a0:	4b01      	ldr	r3, [pc, #4]	; (80039a8 <__errno+0x8>)
 80039a2:	6818      	ldr	r0, [r3, #0]
 80039a4:	4770      	bx	lr
 80039a6:	bf00      	nop
 80039a8:	2000003c 	.word	0x2000003c

080039ac <__libc_init_array>:
 80039ac:	b570      	push	{r4, r5, r6, lr}
 80039ae:	4e0d      	ldr	r6, [pc, #52]	; (80039e4 <__libc_init_array+0x38>)
 80039b0:	4c0d      	ldr	r4, [pc, #52]	; (80039e8 <__libc_init_array+0x3c>)
 80039b2:	1ba4      	subs	r4, r4, r6
 80039b4:	10a4      	asrs	r4, r4, #2
 80039b6:	2500      	movs	r5, #0
 80039b8:	42a5      	cmp	r5, r4
 80039ba:	d109      	bne.n	80039d0 <__libc_init_array+0x24>
 80039bc:	4e0b      	ldr	r6, [pc, #44]	; (80039ec <__libc_init_array+0x40>)
 80039be:	4c0c      	ldr	r4, [pc, #48]	; (80039f0 <__libc_init_array+0x44>)
 80039c0:	f000 f818 	bl	80039f4 <_init>
 80039c4:	1ba4      	subs	r4, r4, r6
 80039c6:	10a4      	asrs	r4, r4, #2
 80039c8:	2500      	movs	r5, #0
 80039ca:	42a5      	cmp	r5, r4
 80039cc:	d105      	bne.n	80039da <__libc_init_array+0x2e>
 80039ce:	bd70      	pop	{r4, r5, r6, pc}
 80039d0:	f856 3025 	ldr.w	r3, [r6, r5, lsl #2]
 80039d4:	4798      	blx	r3
 80039d6:	3501      	adds	r5, #1
 80039d8:	e7ee      	b.n	80039b8 <__libc_init_array+0xc>
 80039da:	f856 3025 	ldr.w	r3, [r6, r5, lsl #2]
 80039de:	4798      	blx	r3
 80039e0:	3501      	adds	r5, #1
 80039e2:	e7f2      	b.n	80039ca <__libc_init_array+0x1e>
 80039e4:	08008c18 	.word	0x08008c18
 80039e8:	08008c18 	.word	0x08008c18
 80039ec:	08008c18 	.word	0x08008c18
 80039f0:	08008c1c 	.word	0x08008c1c

080039f4 <_init>:
 80039f4:	b5f8      	push	{r3, r4, r5, r6, r7, lr}
 80039f6:	bf00      	nop
 80039f8:	bcf8      	pop	{r3, r4, r5, r6, r7}
 80039fa:	bc08      	pop	{r3}
 80039fc:	469e      	mov	lr, r3
 80039fe:	4770      	bx	lr

08003a00 <_fini>:
 8003a00:	b5f8      	push	{r3, r4, r5, r6, r7, lr}
 8003a02:	bf00      	nop
 8003a04:	bcf8      	pop	{r3, r4, r5, r6, r7}
 8003a06:	bc08      	pop	{r3}
 8003a08:	469e      	mov	lr, r3
 8003a0a:	4770      	bx	lr
